	.section	__TEXT,__text,regular,pure_instructions
	.build_version macos, 10, 15, 4	sdk_version 10, 15, 4
	.globl	_sqlite3_shathree_init  ## -- Begin function sqlite3_shathree_init
	.p2align	4, 0x90
_sqlite3_shathree_init:                 ## @sqlite3_shathree_init
	.cfi_startproc
## %bb.0:
	pushq	%rbp
	.cfi_def_cfa_offset 16
	.cfi_offset %rbp, -16
	movq	%rsp, %rbp
	.cfi_def_cfa_register %rbp
	subq	$48, %rsp
	xorl	%eax, %eax
	movl	%eax, %r8d
	movq	%rdi, -8(%rbp)
	movq	%rsi, -16(%rbp)
	movq	%rdx, -24(%rbp)
	movl	$0, -28(%rbp)
	movq	-8(%rbp), %rdi
	leaq	L_.str(%rip), %rsi
	movl	$1, %edx
	movl	$2099201, %ecx          ## imm = 0x200801
	leaq	_sha3Func(%rip), %r9
	movq	$0, (%rsp)
	movq	$0, 8(%rsp)
	callq	_sqlite3_create_function
	movl	%eax, -28(%rbp)
	cmpl	$0, -28(%rbp)
	jne	LBB0_2
## %bb.1:
	xorl	%eax, %eax
	movl	%eax, %r8d
	movq	-8(%rbp), %rdi
	leaq	L_.str(%rip), %rsi
	movl	$2, %edx
	movl	$2099201, %ecx          ## imm = 0x200801
	leaq	_sha3Func(%rip), %r9
	movq	$0, (%rsp)
	movq	$0, 8(%rsp)
	callq	_sqlite3_create_function
	movl	%eax, -28(%rbp)
LBB0_2:
	cmpl	$0, -28(%rbp)
	jne	LBB0_4
## %bb.3:
	xorl	%eax, %eax
	movl	%eax, %r8d
	movq	-8(%rbp), %rdi
	leaq	L_.str.1(%rip), %rsi
	movl	$1, %edx
	movl	$524289, %ecx           ## imm = 0x80001
	leaq	_sha3QueryFunc(%rip), %r9
	movq	$0, (%rsp)
	movq	$0, 8(%rsp)
	callq	_sqlite3_create_function
	movl	%eax, -28(%rbp)
LBB0_4:
	cmpl	$0, -28(%rbp)
	jne	LBB0_6
## %bb.5:
	xorl	%eax, %eax
	movl	%eax, %r8d
	movq	-8(%rbp), %rdi
	leaq	L_.str.1(%rip), %rsi
	movl	$2, %edx
	movl	$524289, %ecx           ## imm = 0x80001
	leaq	_sha3QueryFunc(%rip), %r9
	movq	$0, (%rsp)
	movq	$0, 8(%rsp)
	callq	_sqlite3_create_function
	movl	%eax, -28(%rbp)
LBB0_6:
	movl	-28(%rbp), %eax
	addq	$48, %rsp
	popq	%rbp
	retq
	.cfi_endproc
                                        ## -- End function
	.p2align	4, 0x90         ## -- Begin function sha3Func
_sha3Func:                              ## @sha3Func
	.cfi_startproc
## %bb.0:
	pushq	%rbp
	.cfi_def_cfa_offset 16
	.cfi_offset %rbp, -16
	movq	%rsp, %rbp
	.cfi_def_cfa_register %rbp
	subq	$1680, %rsp             ## imm = 0x690
	movq	___stack_chk_guard@GOTPCREL(%rip), %rax
	movq	(%rax), %rax
	movq	%rax, -8(%rbp)
	movq	%rdi, -1632(%rbp)
	movl	%esi, -1636(%rbp)
	movq	%rdx, -1648(%rbp)
	movq	-1648(%rbp), %rax
	movq	(%rax), %rdi
	callq	_sqlite3_value_type
	movl	%eax, -1652(%rbp)
	movq	-1648(%rbp), %rcx
	movq	(%rcx), %rdi
	callq	_sqlite3_value_bytes
	movl	%eax, -1656(%rbp)
	cmpl	$1, -1636(%rbp)
	jne	LBB1_2
## %bb.1:
	movl	$256, -1660(%rbp)       ## imm = 0x100
	jmp	LBB1_8
LBB1_2:
	movq	-1648(%rbp), %rax
	movq	8(%rax), %rdi
	callq	_sqlite3_value_int
	movl	%eax, -1660(%rbp)
	cmpl	$224, -1660(%rbp)
	je	LBB1_7
## %bb.3:
	cmpl	$256, -1660(%rbp)       ## imm = 0x100
	je	LBB1_7
## %bb.4:
	cmpl	$384, -1660(%rbp)       ## imm = 0x180
	je	LBB1_7
## %bb.5:
	cmpl	$512, -1660(%rbp)       ## imm = 0x200
	je	LBB1_7
## %bb.6:
	movq	-1632(%rbp), %rdi
	leaq	L_.str.103(%rip), %rsi
	movl	$4294967295, %edx       ## imm = 0xFFFFFFFF
	callq	_sqlite3_result_error
	jmp	LBB1_14
LBB1_7:
	jmp	LBB1_8
LBB1_8:
	cmpl	$5, -1652(%rbp)
	jne	LBB1_10
## %bb.9:
	jmp	LBB1_14
LBB1_10:
	movl	-1660(%rbp), %esi
	leaq	-1624(%rbp), %rdi
	callq	_SHA3Init
	cmpl	$4, -1652(%rbp)
	jne	LBB1_12
## %bb.11:
	movq	-1648(%rbp), %rax
	movq	(%rax), %rdi
	callq	_sqlite3_value_blob
	movl	-1656(%rbp), %edx
	leaq	-1624(%rbp), %rdi
	movq	%rax, %rsi
	callq	_SHA3Update
	jmp	LBB1_13
LBB1_12:
	movq	-1648(%rbp), %rax
	movq	(%rax), %rdi
	callq	_sqlite3_value_text
	movl	-1656(%rbp), %edx
	leaq	-1624(%rbp), %rdi
	movq	%rax, %rsi
	callq	_SHA3Update
LBB1_13:
	movq	-1632(%rbp), %rdi
	leaq	-1624(%rbp), %rax
	movq	%rdi, -1672(%rbp)       ## 8-byte Spill
	movq	%rax, %rdi
	callq	_SHA3Final
	movl	-1660(%rbp), %ecx
	movq	%rax, -1680(%rbp)       ## 8-byte Spill
	movl	%ecx, %eax
	cltd
	movl	$8, %ecx
	idivl	%ecx
	movq	-1672(%rbp), %rdi       ## 8-byte Reload
	movq	-1680(%rbp), %rsi       ## 8-byte Reload
	movl	%eax, %edx
	movq	$-1, %rcx
	callq	_sqlite3_result_blob
LBB1_14:
	movq	___stack_chk_guard@GOTPCREL(%rip), %rax
	movq	(%rax), %rax
	movq	-8(%rbp), %rcx
	cmpq	%rcx, %rax
	jne	LBB1_16
## %bb.15:
	addq	$1680, %rsp             ## imm = 0x690
	popq	%rbp
	retq
LBB1_16:
	callq	___stack_chk_fail
	ud2
	.cfi_endproc
                                        ## -- End function
	.p2align	4, 0x90         ## -- Begin function sha3QueryFunc
_sha3QueryFunc:                         ## @sha3QueryFunc
	.cfi_startproc
## %bb.0:
	pushq	%rbp
	.cfi_def_cfa_offset 16
	.cfi_offset %rbp, -16
	movq	%rsp, %rbp
	.cfi_def_cfa_register %rbp
	subq	$1872, %rsp             ## imm = 0x750
	movq	___stack_chk_guard@GOTPCREL(%rip), %rax
	movq	(%rax), %rax
	movq	%rax, -8(%rbp)
	movq	%rdi, -1656(%rbp)
	movl	%esi, -1660(%rbp)
	movq	%rdx, -1672(%rbp)
	movq	-1656(%rbp), %rdi
	callq	_sqlite3_context_db_handle
	movq	%rax, -1680(%rbp)
	movq	-1672(%rbp), %rax
	movq	(%rax), %rdi
	callq	_sqlite3_value_text
	movq	%rax, -1688(%rbp)
	movq	$0, -1696(%rbp)
	cmpl	$1, -1660(%rbp)
	jne	LBB2_2
## %bb.1:
	movl	$256, -1724(%rbp)       ## imm = 0x100
	jmp	LBB2_8
LBB2_2:
	movq	-1672(%rbp), %rax
	movq	8(%rax), %rdi
	callq	_sqlite3_value_int
	movl	%eax, -1724(%rbp)
	cmpl	$224, -1724(%rbp)
	je	LBB2_7
## %bb.3:
	cmpl	$256, -1724(%rbp)       ## imm = 0x100
	je	LBB2_7
## %bb.4:
	cmpl	$384, -1724(%rbp)       ## imm = 0x180
	je	LBB2_7
## %bb.5:
	cmpl	$512, -1724(%rbp)       ## imm = 0x200
	je	LBB2_7
## %bb.6:
	movq	-1656(%rbp), %rdi
	leaq	L_.str.103(%rip), %rsi
	movl	$4294967295, %edx       ## imm = 0xFFFFFFFF
	callq	_sqlite3_result_error
	jmp	LBB2_41
LBB2_7:
	jmp	LBB2_8
LBB2_8:
	cmpq	$0, -1688(%rbp)
	jne	LBB2_10
## %bb.9:
	jmp	LBB2_41
LBB2_10:
	movl	-1724(%rbp), %esi
	leaq	-1624(%rbp), %rdi
	callq	_SHA3Init
LBB2_11:                                ## =>This Loop Header: Depth=1
                                        ##     Child Loop BB2_19 Depth 2
                                        ##       Child Loop BB2_21 Depth 3
                                        ##         Child Loop BB2_30 Depth 4
                                        ##         Child Loop BB2_25 Depth 4
	movq	-1688(%rbp), %rax
	cmpb	$0, (%rax)
	je	LBB2_40
## %bb.12:                              ##   in Loop: Header=BB2_11 Depth=1
	movq	-1680(%rbp), %rdi
	movq	-1688(%rbp), %rsi
	movl	$4294967295, %edx       ## imm = 0xFFFFFFFF
	leaq	-1696(%rbp), %rcx
	leaq	-1688(%rbp), %r8
	callq	_sqlite3_prepare_v2
	movl	%eax, -1708(%rbp)
	cmpl	$0, -1708(%rbp)
	je	LBB2_14
## %bb.13:
	movq	-1688(%rbp), %rsi
	movq	-1680(%rbp), %rdi
	movq	%rsi, -1832(%rbp)       ## 8-byte Spill
	callq	_sqlite3_errmsg
	leaq	L_.str.104(%rip), %rdi
	movq	-1832(%rbp), %rsi       ## 8-byte Reload
	movq	%rax, %rdx
	movb	$0, %al
	callq	_sqlite3_mprintf
	movq	%rax, -1736(%rbp)
	movq	-1696(%rbp), %rdi
	callq	_sqlite3_finalize
	movq	-1656(%rbp), %rdi
	movq	-1736(%rbp), %rsi
	movl	$4294967295, %edx       ## imm = 0xFFFFFFFF
	movl	%eax, -1836(%rbp)       ## 4-byte Spill
	callq	_sqlite3_result_error
	movq	-1736(%rbp), %rdi
	callq	_sqlite3_free
	jmp	LBB2_41
LBB2_14:                                ##   in Loop: Header=BB2_11 Depth=1
	movq	-1696(%rbp), %rdi
	callq	_sqlite3_stmt_readonly
	cmpl	$0, %eax
	jne	LBB2_16
## %bb.15:
	movq	-1696(%rbp), %rdi
	callq	_sqlite3_sql
	leaq	L_.str.105(%rip), %rdi
	movq	%rax, %rsi
	movb	$0, %al
	callq	_sqlite3_mprintf
	movq	%rax, -1744(%rbp)
	movq	-1696(%rbp), %rdi
	callq	_sqlite3_finalize
	movq	-1656(%rbp), %rdi
	movq	-1744(%rbp), %rsi
	movl	$4294967295, %edx       ## imm = 0xFFFFFFFF
	movl	%eax, -1840(%rbp)       ## 4-byte Spill
	callq	_sqlite3_result_error
	movq	-1744(%rbp), %rdi
	callq	_sqlite3_free
	jmp	LBB2_41
LBB2_16:                                ##   in Loop: Header=BB2_11 Depth=1
	movq	-1696(%rbp), %rdi
	callq	_sqlite3_column_count
	movl	%eax, -1700(%rbp)
	movq	-1696(%rbp), %rdi
	callq	_sqlite3_sql
	movq	%rax, -1720(%rbp)
	cmpq	$0, -1720(%rbp)
	je	LBB2_18
## %bb.17:                              ##   in Loop: Header=BB2_11 Depth=1
	movq	-1720(%rbp), %rdi
	callq	_strlen
                                        ## kill: def $eax killed $eax killed $rax
	movl	%eax, -1712(%rbp)
	movl	-1712(%rbp), %edx
	leaq	-1624(%rbp), %rdi
	leaq	L_.str.106(%rip), %rsi
	movb	$0, %al
	callq	_hash_step_vformat
	movq	-1720(%rbp), %rsi
	movl	-1712(%rbp), %edx
	leaq	-1624(%rbp), %rdi
	callq	_SHA3Update
LBB2_18:                                ##   in Loop: Header=BB2_11 Depth=1
	jmp	LBB2_19
LBB2_19:                                ##   Parent Loop BB2_11 Depth=1
                                        ## =>  This Loop Header: Depth=2
                                        ##       Child Loop BB2_21 Depth 3
                                        ##         Child Loop BB2_30 Depth 4
                                        ##         Child Loop BB2_25 Depth 4
	movq	-1696(%rbp), %rdi
	callq	_sqlite3_step
	movl	$100, %ecx
	cmpl	%eax, %ecx
	jne	LBB2_39
## %bb.20:                              ##   in Loop: Header=BB2_19 Depth=2
	leaq	-1624(%rbp), %rdi
	leaq	L_.str.107(%rip), %rsi
	movl	$1, %edx
	callq	_SHA3Update
	movl	$0, -1704(%rbp)
LBB2_21:                                ##   Parent Loop BB2_11 Depth=1
                                        ##     Parent Loop BB2_19 Depth=2
                                        ## =>    This Loop Header: Depth=3
                                        ##         Child Loop BB2_30 Depth 4
                                        ##         Child Loop BB2_25 Depth 4
	movl	-1704(%rbp), %eax
	cmpl	-1700(%rbp), %eax
	jge	LBB2_38
## %bb.22:                              ##   in Loop: Header=BB2_21 Depth=3
	movq	-1696(%rbp), %rdi
	movl	-1704(%rbp), %esi
	callq	_sqlite3_column_type
	decl	%eax
	movl	%eax, %ecx
	subl	$4, %eax
	movq	%rcx, -1848(%rbp)       ## 8-byte Spill
	ja	LBB2_36
## %bb.44:                              ##   in Loop: Header=BB2_21 Depth=3
	leaq	LJTI2_0(%rip), %rax
	movq	-1848(%rbp), %rcx       ## 8-byte Reload
	movslq	(%rax,%rcx,4), %rdx
	addq	%rax, %rdx
	jmpq	*%rdx
LBB2_23:                                ##   in Loop: Header=BB2_21 Depth=3
	leaq	-1624(%rbp), %rdi
	leaq	L_.str.108(%rip), %rsi
	movl	$1, %edx
	callq	_SHA3Update
	jmp	LBB2_36
LBB2_24:                                ##   in Loop: Header=BB2_21 Depth=3
	movq	-1696(%rbp), %rdi
	movl	-1704(%rbp), %esi
	callq	_sqlite3_column_int64
	movq	%rax, -1768(%rbp)
	movq	-1768(%rbp), %rax
	movq	%rax, -1752(%rbp)
	movl	$8, -1756(%rbp)
LBB2_25:                                ##   Parent Loop BB2_11 Depth=1
                                        ##     Parent Loop BB2_19 Depth=2
                                        ##       Parent Loop BB2_21 Depth=3
                                        ## =>      This Inner Loop Header: Depth=4
	cmpl	$1, -1756(%rbp)
	jl	LBB2_28
## %bb.26:                              ##   in Loop: Header=BB2_25 Depth=4
	movq	-1752(%rbp), %rax
	andq	$255, %rax
                                        ## kill: def $al killed $al killed $rax
	movslq	-1756(%rbp), %rcx
	movb	%al, -1633(%rbp,%rcx)
	movq	-1752(%rbp), %rcx
	shrq	$8, %rcx
	movq	%rcx, -1752(%rbp)
## %bb.27:                              ##   in Loop: Header=BB2_25 Depth=4
	movl	-1756(%rbp), %eax
	addl	$-1, %eax
	movl	%eax, -1756(%rbp)
	jmp	LBB2_25
LBB2_28:                                ##   in Loop: Header=BB2_21 Depth=3
	leaq	-1633(%rbp), %rsi
	movb	$73, -1633(%rbp)
	leaq	-1624(%rbp), %rdi
	movl	$9, %edx
	callq	_SHA3Update
	jmp	LBB2_36
LBB2_29:                                ##   in Loop: Header=BB2_21 Depth=3
	movq	-1696(%rbp), %rdi
	movl	-1704(%rbp), %esi
	callq	_sqlite3_column_double
	movsd	%xmm0, -1792(%rbp)
	movq	-1792(%rbp), %rax
	movq	%rax, -1776(%rbp)
	movl	$8, -1780(%rbp)
LBB2_30:                                ##   Parent Loop BB2_11 Depth=1
                                        ##     Parent Loop BB2_19 Depth=2
                                        ##       Parent Loop BB2_21 Depth=3
                                        ## =>      This Inner Loop Header: Depth=4
	cmpl	$1, -1780(%rbp)
	jl	LBB2_33
## %bb.31:                              ##   in Loop: Header=BB2_30 Depth=4
	movq	-1776(%rbp), %rax
	andq	$255, %rax
                                        ## kill: def $al killed $al killed $rax
	movslq	-1780(%rbp), %rcx
	movb	%al, -1642(%rbp,%rcx)
	movq	-1776(%rbp), %rcx
	shrq	$8, %rcx
	movq	%rcx, -1776(%rbp)
## %bb.32:                              ##   in Loop: Header=BB2_30 Depth=4
	movl	-1780(%rbp), %eax
	addl	$-1, %eax
	movl	%eax, -1780(%rbp)
	jmp	LBB2_30
LBB2_33:                                ##   in Loop: Header=BB2_21 Depth=3
	leaq	-1642(%rbp), %rsi
	movb	$70, -1642(%rbp)
	leaq	-1624(%rbp), %rdi
	movl	$9, %edx
	callq	_SHA3Update
	jmp	LBB2_36
LBB2_34:                                ##   in Loop: Header=BB2_21 Depth=3
	movq	-1696(%rbp), %rdi
	movl	-1704(%rbp), %esi
	callq	_sqlite3_column_bytes
	movl	%eax, -1796(%rbp)
	movq	-1696(%rbp), %rdi
	movl	-1704(%rbp), %esi
	callq	_sqlite3_column_text
	movq	%rax, -1808(%rbp)
	movl	-1796(%rbp), %edx
	leaq	-1624(%rbp), %rdi
	leaq	L_.str.109(%rip), %rsi
	movb	$0, %al
	callq	_hash_step_vformat
	movq	-1808(%rbp), %rsi
	movl	-1796(%rbp), %edx
	leaq	-1624(%rbp), %rdi
	callq	_SHA3Update
	jmp	LBB2_36
LBB2_35:                                ##   in Loop: Header=BB2_21 Depth=3
	movq	-1696(%rbp), %rdi
	movl	-1704(%rbp), %esi
	callq	_sqlite3_column_bytes
	movl	%eax, -1812(%rbp)
	movq	-1696(%rbp), %rdi
	movl	-1704(%rbp), %esi
	callq	_sqlite3_column_blob
	movq	%rax, -1824(%rbp)
	movl	-1812(%rbp), %edx
	leaq	-1624(%rbp), %rdi
	leaq	L_.str.110(%rip), %rsi
	movb	$0, %al
	callq	_hash_step_vformat
	movq	-1824(%rbp), %rsi
	movl	-1812(%rbp), %edx
	leaq	-1624(%rbp), %rdi
	callq	_SHA3Update
LBB2_36:                                ##   in Loop: Header=BB2_21 Depth=3
	jmp	LBB2_37
LBB2_37:                                ##   in Loop: Header=BB2_21 Depth=3
	movl	-1704(%rbp), %eax
	addl	$1, %eax
	movl	%eax, -1704(%rbp)
	jmp	LBB2_21
LBB2_38:                                ##   in Loop: Header=BB2_19 Depth=2
	jmp	LBB2_19
LBB2_39:                                ##   in Loop: Header=BB2_11 Depth=1
	movq	-1696(%rbp), %rdi
	callq	_sqlite3_finalize
	jmp	LBB2_11
LBB2_40:
	movq	-1656(%rbp), %rdi
	leaq	-1624(%rbp), %rax
	movq	%rdi, -1856(%rbp)       ## 8-byte Spill
	movq	%rax, %rdi
	callq	_SHA3Final
	movl	-1724(%rbp), %ecx
	movq	%rax, -1864(%rbp)       ## 8-byte Spill
	movl	%ecx, %eax
	cltd
	movl	$8, %ecx
	idivl	%ecx
	movq	-1856(%rbp), %rdi       ## 8-byte Reload
	movq	-1864(%rbp), %rsi       ## 8-byte Reload
	movl	%eax, %edx
	movq	$-1, %rcx
	callq	_sqlite3_result_blob
LBB2_41:
	movq	___stack_chk_guard@GOTPCREL(%rip), %rax
	movq	(%rax), %rax
	movq	-8(%rbp), %rcx
	cmpq	%rcx, %rax
	jne	LBB2_43
## %bb.42:
	addq	$1872, %rsp             ## imm = 0x750
	popq	%rbp
	retq
LBB2_43:
	callq	___stack_chk_fail
	ud2
	.cfi_endproc
	.p2align	2, 0x90
	.data_region jt32
.set L2_0_set_24, LBB2_24-LJTI2_0
.set L2_0_set_29, LBB2_29-LJTI2_0
.set L2_0_set_34, LBB2_34-LJTI2_0
.set L2_0_set_35, LBB2_35-LJTI2_0
.set L2_0_set_23, LBB2_23-LJTI2_0
LJTI2_0:
	.long	L2_0_set_24
	.long	L2_0_set_29
	.long	L2_0_set_34
	.long	L2_0_set_35
	.long	L2_0_set_23
	.end_data_region
                                        ## -- End function
	.globl	_sqlite3_fileio_init    ## -- Begin function sqlite3_fileio_init
	.p2align	4, 0x90
_sqlite3_fileio_init:                   ## @sqlite3_fileio_init
	.cfi_startproc
## %bb.0:
	pushq	%rbp
	.cfi_def_cfa_offset 16
	.cfi_offset %rbp, -16
	movq	%rsp, %rbp
	.cfi_def_cfa_register %rbp
	subq	$48, %rsp
	xorl	%eax, %eax
	movl	%eax, %r8d
	movq	%rdi, -8(%rbp)
	movq	%rsi, -16(%rbp)
	movq	%rdx, -24(%rbp)
	movl	$0, -28(%rbp)
	movq	-8(%rbp), %rdi
	leaq	L_.str.2(%rip), %rsi
	movl	$1, %edx
	movl	$524289, %ecx           ## imm = 0x80001
	leaq	_readfileFunc(%rip), %r9
	movq	$0, (%rsp)
	movq	$0, 8(%rsp)
	callq	_sqlite3_create_function
	movl	%eax, -28(%rbp)
	cmpl	$0, -28(%rbp)
	jne	LBB3_2
## %bb.1:
	xorl	%eax, %eax
	movl	%eax, %r8d
	movq	-8(%rbp), %rdi
	leaq	L_.str.3(%rip), %rsi
	movl	$4294967295, %edx       ## imm = 0xFFFFFFFF
	movl	$524289, %ecx           ## imm = 0x80001
	leaq	_writefileFunc(%rip), %r9
	movq	$0, (%rsp)
	movq	$0, 8(%rsp)
	callq	_sqlite3_create_function
	movl	%eax, -28(%rbp)
LBB3_2:
	cmpl	$0, -28(%rbp)
	jne	LBB3_4
## %bb.3:
	xorl	%eax, %eax
	movl	%eax, %r8d
	movq	-8(%rbp), %rdi
	leaq	L_.str.4(%rip), %rsi
	movl	$1, %eax
	movl	%eax, %edx
	movl	%eax, %ecx
	leaq	_lsModeFunc(%rip), %r9
	movq	$0, (%rsp)
	movq	$0, 8(%rsp)
	callq	_sqlite3_create_function
	movl	%eax, -28(%rbp)
LBB3_4:
	cmpl	$0, -28(%rbp)
	jne	LBB3_6
## %bb.5:
	movq	-8(%rbp), %rdi
	callq	_fsdirRegister
	movl	%eax, -28(%rbp)
LBB3_6:
	movl	-28(%rbp), %eax
	addq	$48, %rsp
	popq	%rbp
	retq
	.cfi_endproc
                                        ## -- End function
	.p2align	4, 0x90         ## -- Begin function readfileFunc
_readfileFunc:                          ## @readfileFunc
	.cfi_startproc
## %bb.0:
	pushq	%rbp
	.cfi_def_cfa_offset 16
	.cfi_offset %rbp, -16
	movq	%rsp, %rbp
	.cfi_def_cfa_register %rbp
	subq	$32, %rsp
	movq	%rdi, -8(%rbp)
	movl	%esi, -12(%rbp)
	movq	%rdx, -24(%rbp)
	movq	-24(%rbp), %rax
	movq	(%rax), %rdi
	callq	_sqlite3_value_text
	movq	%rax, -32(%rbp)
	cmpq	$0, -32(%rbp)
	jne	LBB4_2
## %bb.1:
	jmp	LBB4_3
LBB4_2:
	movq	-8(%rbp), %rdi
	movq	-32(%rbp), %rsi
	callq	_readFileContents
LBB4_3:
	addq	$32, %rsp
	popq	%rbp
	retq
	.cfi_endproc
                                        ## -- End function
	.p2align	4, 0x90         ## -- Begin function writefileFunc
_writefileFunc:                         ## @writefileFunc
	.cfi_startproc
## %bb.0:
	pushq	%rbp
	.cfi_def_cfa_offset 16
	.cfi_offset %rbp, -16
	movq	%rsp, %rbp
	.cfi_def_cfa_register %rbp
	subq	$48, %rsp
	movq	%rdi, -8(%rbp)
	movl	%esi, -12(%rbp)
	movq	%rdx, -24(%rbp)
	movw	$0, -34(%rbp)
	movq	$-1, -48(%rbp)
	cmpl	$2, -12(%rbp)
	jl	LBB5_2
## %bb.1:
	cmpl	$4, -12(%rbp)
	jle	LBB5_3
LBB5_2:
	movq	-8(%rbp), %rdi
	leaq	L_.str.111(%rip), %rsi
	movl	$4294967295, %edx       ## imm = 0xFFFFFFFF
	callq	_sqlite3_result_error
	jmp	LBB5_23
LBB5_3:
	movq	-24(%rbp), %rax
	movq	(%rax), %rdi
	callq	_sqlite3_value_text
	movq	%rax, -32(%rbp)
	cmpq	$0, -32(%rbp)
	jne	LBB5_5
## %bb.4:
	jmp	LBB5_23
LBB5_5:
	cmpl	$3, -12(%rbp)
	jl	LBB5_7
## %bb.6:
	movq	-24(%rbp), %rax
	movq	16(%rax), %rdi
	callq	_sqlite3_value_int
                                        ## kill: def $ax killed $ax killed $eax
	movw	%ax, -34(%rbp)
LBB5_7:
	cmpl	$4, -12(%rbp)
	jne	LBB5_9
## %bb.8:
	movq	-24(%rbp), %rax
	movq	24(%rax), %rdi
	callq	_sqlite3_value_int64
	movq	%rax, -48(%rbp)
LBB5_9:
	movq	-8(%rbp), %rdi
	movq	-32(%rbp), %rsi
	movq	-24(%rbp), %rax
	movq	8(%rax), %rdx
	movw	-34(%rbp), %cx
	movq	-48(%rbp), %r8
	movzwl	%cx, %ecx
	callq	_writeFile
	movl	%eax, -40(%rbp)
	cmpl	$1, -40(%rbp)
	jne	LBB5_14
## %bb.10:
	callq	___error
	cmpl	$2, (%rax)
	jne	LBB5_14
## %bb.11:
	movq	-32(%rbp), %rdi
	callq	_makeDirectory
	cmpl	$0, %eax
	jne	LBB5_13
## %bb.12:
	movq	-8(%rbp), %rdi
	movq	-32(%rbp), %rsi
	movq	-24(%rbp), %rax
	movq	8(%rax), %rdx
	movw	-34(%rbp), %cx
	movq	-48(%rbp), %r8
	movzwl	%cx, %ecx
	callq	_writeFile
	movl	%eax, -40(%rbp)
LBB5_13:
	jmp	LBB5_14
LBB5_14:
	cmpl	$2, -12(%rbp)
	jle	LBB5_23
## %bb.15:
	cmpl	$0, -40(%rbp)
	je	LBB5_23
## %bb.16:
	movzwl	-34(%rbp), %eax
	andl	$61440, %eax            ## imm = 0xF000
	cmpl	$40960, %eax            ## imm = 0xA000
	jne	LBB5_18
## %bb.17:
	movq	-8(%rbp), %rdi
	movq	-32(%rbp), %rdx
	leaq	L_.str.112(%rip), %rsi
	movb	$0, %al
	callq	_ctxErrorMsg
	jmp	LBB5_22
LBB5_18:
	movzwl	-34(%rbp), %eax
	andl	$61440, %eax            ## imm = 0xF000
	cmpl	$16384, %eax            ## imm = 0x4000
	jne	LBB5_20
## %bb.19:
	movq	-8(%rbp), %rdi
	movq	-32(%rbp), %rdx
	leaq	L_.str.113(%rip), %rsi
	movb	$0, %al
	callq	_ctxErrorMsg
	jmp	LBB5_21
LBB5_20:
	movq	-8(%rbp), %rdi
	movq	-32(%rbp), %rdx
	leaq	L_.str.114(%rip), %rsi
	movb	$0, %al
	callq	_ctxErrorMsg
LBB5_21:
	jmp	LBB5_22
LBB5_22:
	jmp	LBB5_23
LBB5_23:
	addq	$48, %rsp
	popq	%rbp
	retq
	.cfi_endproc
                                        ## -- End function
	.p2align	4, 0x90         ## -- Begin function lsModeFunc
_lsModeFunc:                            ## @lsModeFunc
	.cfi_startproc
## %bb.0:
	pushq	%rbp
	.cfi_def_cfa_offset 16
	.cfi_offset %rbp, -16
	movq	%rsp, %rbp
	.cfi_def_cfa_register %rbp
	subq	$80, %rsp
	movq	___stack_chk_guard@GOTPCREL(%rip), %rax
	movq	(%rax), %rax
	movq	%rax, -8(%rbp)
	movq	%rdi, -40(%rbp)
	movl	%esi, -44(%rbp)
	movq	%rdx, -56(%rbp)
	movq	-56(%rbp), %rax
	movq	(%rax), %rdi
	callq	_sqlite3_value_int
	movl	%eax, -64(%rbp)
	movl	-64(%rbp), %eax
	andl	$61440, %eax            ## imm = 0xF000
	cmpl	$40960, %eax            ## imm = 0xA000
	jne	LBB6_2
## %bb.1:
	movb	$108, -32(%rbp)
	jmp	LBB6_9
LBB6_2:
	movl	-64(%rbp), %eax
	andl	$61440, %eax            ## imm = 0xF000
	cmpl	$32768, %eax            ## imm = 0x8000
	jne	LBB6_4
## %bb.3:
	movb	$45, -32(%rbp)
	jmp	LBB6_8
LBB6_4:
	movl	-64(%rbp), %eax
	andl	$61440, %eax            ## imm = 0xF000
	cmpl	$16384, %eax            ## imm = 0x4000
	jne	LBB6_6
## %bb.5:
	movb	$100, -32(%rbp)
	jmp	LBB6_7
LBB6_6:
	movb	$63, -32(%rbp)
LBB6_7:
	jmp	LBB6_8
LBB6_8:
	jmp	LBB6_9
LBB6_9:
	movl	$0, -60(%rbp)
LBB6_10:                                ## =>This Inner Loop Header: Depth=1
	cmpl	$3, -60(%rbp)
	jge	LBB6_13
## %bb.11:                              ##   in Loop: Header=BB6_10 Depth=1
	movl	-64(%rbp), %eax
	movl	$2, %ecx
	subl	-60(%rbp), %ecx
	imull	$3, %ecx, %ecx
                                        ## kill: def $cl killed $ecx
	sarl	%cl, %eax
	movl	%eax, -68(%rbp)
	imull	$3, -60(%rbp), %eax
	addl	$1, %eax
	movslq	%eax, %rdx
	leaq	-32(%rbp), %rsi
	addq	%rdx, %rsi
	movq	%rsi, -80(%rbp)
	movl	-68(%rbp), %eax
	andl	$4, %eax
	cmpl	$0, %eax
	movl	$114, %eax
	movl	$45, %edi
	movl	%edi, %r8d
	cmovnel	%eax, %r8d
                                        ## kill: def $r8b killed $r8b killed $r8d
	movq	-80(%rbp), %rdx
	movb	%r8b, (%rdx)
	movl	-68(%rbp), %eax
	andl	$2, %eax
	cmpl	$0, %eax
	movl	$119, %eax
	movl	%edi, %r9d
	cmovnel	%eax, %r9d
                                        ## kill: def $r9b killed $r9b killed $r9d
	movq	-80(%rbp), %rdx
	movb	%r9b, 1(%rdx)
	movl	-68(%rbp), %eax
	andl	$1, %eax
	cmpl	$0, %eax
	movl	$120, %eax
	cmovnel	%eax, %edi
                                        ## kill: def $dil killed $dil killed $edi
	movq	-80(%rbp), %rdx
	movb	%dil, 2(%rdx)
## %bb.12:                              ##   in Loop: Header=BB6_10 Depth=1
	movl	-60(%rbp), %eax
	addl	$1, %eax
	movl	%eax, -60(%rbp)
	jmp	LBB6_10
LBB6_13:
	leaq	-32(%rbp), %rsi
	movb	$0, -22(%rbp)
	movq	-40(%rbp), %rdi
	movl	$4294967295, %edx       ## imm = 0xFFFFFFFF
	movq	$-1, %rcx
	callq	_sqlite3_result_text
	movq	___stack_chk_guard@GOTPCREL(%rip), %rax
	movq	(%rax), %rax
	movq	-8(%rbp), %rcx
	cmpq	%rcx, %rax
	jne	LBB6_15
## %bb.14:
	addq	$80, %rsp
	popq	%rbp
	retq
LBB6_15:
	callq	___stack_chk_fail
	ud2
	.cfi_endproc
                                        ## -- End function
	.p2align	4, 0x90         ## -- Begin function fsdirRegister
_fsdirRegister:                         ## @fsdirRegister
	.cfi_startproc
## %bb.0:
	pushq	%rbp
	.cfi_def_cfa_offset 16
	.cfi_offset %rbp, -16
	movq	%rsp, %rbp
	.cfi_def_cfa_register %rbp
	subq	$16, %rsp
	xorl	%eax, %eax
	movl	%eax, %ecx
	movq	%rdi, -8(%rbp)
	movq	-8(%rbp), %rdi
	leaq	L_.str.116(%rip), %rsi
	leaq	_fsdirRegister.fsdirModule(%rip), %rdx
	callq	_sqlite3_create_module
	movl	%eax, -12(%rbp)
	movl	-12(%rbp), %eax
	addq	$16, %rsp
	popq	%rbp
	retq
	.cfi_endproc
                                        ## -- End function
	.globl	_sqlite3CompletionVtabInit ## -- Begin function sqlite3CompletionVtabInit
	.p2align	4, 0x90
_sqlite3CompletionVtabInit:             ## @sqlite3CompletionVtabInit
	.cfi_startproc
## %bb.0:
	pushq	%rbp
	.cfi_def_cfa_offset 16
	.cfi_offset %rbp, -16
	movq	%rsp, %rbp
	.cfi_def_cfa_register %rbp
	subq	$16, %rsp
	xorl	%eax, %eax
	movl	%eax, %ecx
	movq	%rdi, -8(%rbp)
	movl	$0, -12(%rbp)
	movq	-8(%rbp), %rdi
	leaq	L_.str.5(%rip), %rsi
	leaq	_completionModule(%rip), %rdx
	callq	_sqlite3_create_module
	movl	%eax, -12(%rbp)
	movl	-12(%rbp), %eax
	addq	$16, %rsp
	popq	%rbp
	retq
	.cfi_endproc
                                        ## -- End function
	.globl	_sqlite3_completion_init ## -- Begin function sqlite3_completion_init
	.p2align	4, 0x90
_sqlite3_completion_init:               ## @sqlite3_completion_init
	.cfi_startproc
## %bb.0:
	pushq	%rbp
	.cfi_def_cfa_offset 16
	.cfi_offset %rbp, -16
	movq	%rsp, %rbp
	.cfi_def_cfa_register %rbp
	subq	$32, %rsp
	movq	%rdi, -8(%rbp)
	movq	%rsi, -16(%rbp)
	movq	%rdx, -24(%rbp)
	movl	$0, -28(%rbp)
	movq	-8(%rbp), %rdi
	callq	_sqlite3CompletionVtabInit
	movl	%eax, -28(%rbp)
	movl	-28(%rbp), %eax
	addq	$32, %rsp
	popq	%rbp
	retq
	.cfi_endproc
                                        ## -- End function
	.globl	_sqlite3_appendvfs_init ## -- Begin function sqlite3_appendvfs_init
	.p2align	4, 0x90
_sqlite3_appendvfs_init:                ## @sqlite3_appendvfs_init
	.cfi_startproc
## %bb.0:
	pushq	%rbp
	.cfi_def_cfa_offset 16
	.cfi_offset %rbp, -16
	movq	%rsp, %rbp
	.cfi_def_cfa_register %rbp
	subq	$48, %rsp
	xorl	%eax, %eax
	movl	%eax, %ecx
	movq	%rdi, -16(%rbp)
	movq	%rsi, -24(%rbp)
	movq	%rdx, -32(%rbp)
	movl	$0, -36(%rbp)
	movq	%rcx, %rdi
	callq	_sqlite3_vfs_find
	movq	%rax, -48(%rbp)
	cmpq	$0, -48(%rbp)
	jne	LBB10_2
## %bb.1:
	movl	$1, -4(%rbp)
	jmp	LBB10_5
LBB10_2:
	xorl	%esi, %esi
	movq	-48(%rbp), %rax
	movl	(%rax), %ecx
	movl	%ecx, _apnd_vfs(%rip)
	movq	-48(%rbp), %rax
	movq	%rax, _apnd_vfs+32(%rip)
	movq	-48(%rbp), %rax
	movslq	4(%rax), %rax
	addq	$24, %rax
                                        ## kill: def $eax killed $eax killed $rax
	movl	%eax, _apnd_vfs+4(%rip)
	leaq	_apnd_vfs(%rip), %rdi
	callq	_sqlite3_vfs_register
	movl	%eax, -36(%rbp)
	cmpl	$0, -36(%rbp)
	jne	LBB10_4
## %bb.3:
	movl	$256, -36(%rbp)         ## imm = 0x100
LBB10_4:
	movl	-36(%rbp), %eax
	movl	%eax, -4(%rbp)
LBB10_5:
	movl	-4(%rbp), %eax
	addq	$48, %rsp
	popq	%rbp
	retq
	.cfi_endproc
                                        ## -- End function
	.globl	_sqlite3MemTraceActivate ## -- Begin function sqlite3MemTraceActivate
	.p2align	4, 0x90
_sqlite3MemTraceActivate:               ## @sqlite3MemTraceActivate
	.cfi_startproc
## %bb.0:
	pushq	%rbp
	.cfi_def_cfa_offset 16
	.cfi_offset %rbp, -16
	movq	%rsp, %rbp
	.cfi_def_cfa_register %rbp
	subq	$16, %rsp
	movq	%rdi, -8(%rbp)
	movl	$0, -12(%rbp)
	cmpq	$0, _memtraceBase(%rip)
	jne	LBB11_4
## %bb.1:
	movl	$5, %edi
	leaq	_memtraceBase(%rip), %rsi
	movb	$0, %al
	callq	_sqlite3_config
	movl	%eax, -12(%rbp)
	cmpl	$0, -12(%rbp)
	jne	LBB11_3
## %bb.2:
	movl	$4, %edi
	leaq	_ersaztMethods(%rip), %rsi
	movb	$0, %al
	callq	_sqlite3_config
	movl	%eax, -12(%rbp)
LBB11_3:
	jmp	LBB11_4
LBB11_4:
	movq	-8(%rbp), %rax
	movq	%rax, _memtraceOut(%rip)
	movl	-12(%rbp), %eax
	addq	$16, %rsp
	popq	%rbp
	retq
	.cfi_endproc
                                        ## -- End function
	.globl	_sqlite3MemTraceDeactivate ## -- Begin function sqlite3MemTraceDeactivate
	.p2align	4, 0x90
_sqlite3MemTraceDeactivate:             ## @sqlite3MemTraceDeactivate
	.cfi_startproc
## %bb.0:
	pushq	%rbp
	.cfi_def_cfa_offset 16
	.cfi_offset %rbp, -16
	movq	%rsp, %rbp
	.cfi_def_cfa_register %rbp
	subq	$16, %rsp
	movl	$0, -4(%rbp)
	cmpq	$0, _memtraceBase(%rip)
	je	LBB12_4
## %bb.1:
	movl	$4, %edi
	leaq	_memtraceBase(%rip), %rsi
	movb	$0, %al
	callq	_sqlite3_config
	movl	%eax, -4(%rbp)
	cmpl	$0, -4(%rbp)
	jne	LBB12_3
## %bb.2:
	leaq	_memtraceBase(%rip), %rax
	xorl	%esi, %esi
	movq	%rax, %rdi
	movl	$64, %edx
	callq	_memset
LBB12_3:
	jmp	LBB12_4
LBB12_4:
	movq	$0, _memtraceOut(%rip)
	movl	-4(%rbp), %eax
	addq	$16, %rsp
	popq	%rbp
	retq
	.cfi_endproc
                                        ## -- End function
	.globl	_sqlite3_uint_init      ## -- Begin function sqlite3_uint_init
	.p2align	4, 0x90
_sqlite3_uint_init:                     ## @sqlite3_uint_init
	.cfi_startproc
## %bb.0:
	pushq	%rbp
	.cfi_def_cfa_offset 16
	.cfi_offset %rbp, -16
	movq	%rsp, %rbp
	.cfi_def_cfa_register %rbp
	subq	$32, %rsp
	xorl	%eax, %eax
	movl	%eax, %ecx
	movq	%rdi, -8(%rbp)
	movq	%rsi, -16(%rbp)
	movq	%rdx, -24(%rbp)
	movq	-8(%rbp), %rdi
	leaq	L_.str.6(%rip), %rsi
	movl	$1, %edx
	leaq	_uintCollFunc(%rip), %r8
	callq	_sqlite3_create_collation
	addq	$32, %rsp
	popq	%rbp
	retq
	.cfi_endproc
                                        ## -- End function
	.p2align	4, 0x90         ## -- Begin function uintCollFunc
_uintCollFunc:                          ## @uintCollFunc
	.cfi_startproc
## %bb.0:
	pushq	%rbp
	.cfi_def_cfa_offset 16
	.cfi_offset %rbp, -16
	movq	%rsp, %rbp
	.cfi_def_cfa_register %rbp
	subq	$96, %rsp
	movq	%rdi, -16(%rbp)
	movl	%esi, -20(%rbp)
	movq	%rdx, -32(%rbp)
	movl	%ecx, -36(%rbp)
	movq	%r8, -48(%rbp)
	movq	-32(%rbp), %rax
	movq	%rax, -56(%rbp)
	movq	-48(%rbp), %rax
	movq	%rax, -64(%rbp)
	movl	$0, -68(%rbp)
	movl	$0, -72(%rbp)
LBB14_1:                                ## =>This Loop Header: Depth=1
                                        ##     Child Loop BB14_8 Depth 2
                                        ##     Child Loop BB14_13 Depth 2
                                        ##     Child Loop BB14_18 Depth 2
	xorl	%eax, %eax
                                        ## kill: def $al killed $al killed $eax
	movl	-68(%rbp), %ecx
	cmpl	-20(%rbp), %ecx
	movb	%al, -81(%rbp)          ## 1-byte Spill
	jge	LBB14_3
## %bb.2:                               ##   in Loop: Header=BB14_1 Depth=1
	movl	-72(%rbp), %eax
	cmpl	-36(%rbp), %eax
	setl	%cl
	movb	%cl, -81(%rbp)          ## 1-byte Spill
LBB14_3:                                ##   in Loop: Header=BB14_1 Depth=1
	movb	-81(%rbp), %al          ## 1-byte Reload
	testb	$1, %al
	jne	LBB14_4
	jmp	LBB14_40
LBB14_4:                                ##   in Loop: Header=BB14_1 Depth=1
	movq	-56(%rbp), %rax
	movslq	-68(%rbp), %rcx
	movzbl	(%rax,%rcx), %edx
	movq	-64(%rbp), %rax
	movslq	-72(%rbp), %rcx
	movzbl	(%rax,%rcx), %esi
	subl	%esi, %edx
	movl	%edx, -76(%rbp)
	movq	-56(%rbp), %rax
	movslq	-68(%rbp), %rcx
	movzbl	(%rax,%rcx), %edi
	callq	_isdigit
	cmpl	$0, %eax
	je	LBB14_35
## %bb.5:                               ##   in Loop: Header=BB14_1 Depth=1
	movq	-64(%rbp), %rax
	movslq	-72(%rbp), %rcx
	movzbl	(%rax,%rcx), %edi
	callq	_isdigit
	cmpl	$0, %eax
	jne	LBB14_7
## %bb.6:
	movl	-76(%rbp), %eax
	movl	%eax, -4(%rbp)
	jmp	LBB14_41
LBB14_7:                                ##   in Loop: Header=BB14_1 Depth=1
	jmp	LBB14_8
LBB14_8:                                ##   Parent Loop BB14_1 Depth=1
                                        ## =>  This Inner Loop Header: Depth=2
	xorl	%eax, %eax
                                        ## kill: def $al killed $al killed $eax
	movl	-68(%rbp), %ecx
	cmpl	-20(%rbp), %ecx
	movb	%al, -82(%rbp)          ## 1-byte Spill
	jge	LBB14_10
## %bb.9:                               ##   in Loop: Header=BB14_8 Depth=2
	movq	-56(%rbp), %rax
	movslq	-68(%rbp), %rcx
	movzbl	(%rax,%rcx), %edx
	cmpl	$48, %edx
	sete	%sil
	movb	%sil, -82(%rbp)         ## 1-byte Spill
LBB14_10:                               ##   in Loop: Header=BB14_8 Depth=2
	movb	-82(%rbp), %al          ## 1-byte Reload
	testb	$1, %al
	jne	LBB14_11
	jmp	LBB14_12
LBB14_11:                               ##   in Loop: Header=BB14_8 Depth=2
	movl	-68(%rbp), %eax
	addl	$1, %eax
	movl	%eax, -68(%rbp)
	jmp	LBB14_8
LBB14_12:                               ##   in Loop: Header=BB14_1 Depth=1
	jmp	LBB14_13
LBB14_13:                               ##   Parent Loop BB14_1 Depth=1
                                        ## =>  This Inner Loop Header: Depth=2
	xorl	%eax, %eax
                                        ## kill: def $al killed $al killed $eax
	movl	-72(%rbp), %ecx
	cmpl	-36(%rbp), %ecx
	movb	%al, -83(%rbp)          ## 1-byte Spill
	jge	LBB14_15
## %bb.14:                              ##   in Loop: Header=BB14_13 Depth=2
	movq	-64(%rbp), %rax
	movslq	-72(%rbp), %rcx
	movzbl	(%rax,%rcx), %edx
	cmpl	$48, %edx
	sete	%sil
	movb	%sil, -83(%rbp)         ## 1-byte Spill
LBB14_15:                               ##   in Loop: Header=BB14_13 Depth=2
	movb	-83(%rbp), %al          ## 1-byte Reload
	testb	$1, %al
	jne	LBB14_16
	jmp	LBB14_17
LBB14_16:                               ##   in Loop: Header=BB14_13 Depth=2
	movl	-72(%rbp), %eax
	addl	$1, %eax
	movl	%eax, -72(%rbp)
	jmp	LBB14_13
LBB14_17:                               ##   in Loop: Header=BB14_1 Depth=1
	movl	$0, -80(%rbp)
LBB14_18:                               ##   Parent Loop BB14_1 Depth=1
                                        ## =>  This Inner Loop Header: Depth=2
	xorl	%eax, %eax
                                        ## kill: def $al killed $al killed $eax
	movl	-68(%rbp), %ecx
	addl	-80(%rbp), %ecx
	cmpl	-20(%rbp), %ecx
	movb	%al, -84(%rbp)          ## 1-byte Spill
	jge	LBB14_22
## %bb.19:                              ##   in Loop: Header=BB14_18 Depth=2
	movq	-56(%rbp), %rax
	movl	-68(%rbp), %ecx
	addl	-80(%rbp), %ecx
	movslq	%ecx, %rdx
	movzbl	(%rax,%rdx), %edi
	callq	_isdigit
	xorl	%ecx, %ecx
                                        ## kill: def $cl killed $cl killed $ecx
	cmpl	$0, %eax
	movb	%cl, -84(%rbp)          ## 1-byte Spill
	je	LBB14_22
## %bb.20:                              ##   in Loop: Header=BB14_18 Depth=2
	xorl	%eax, %eax
                                        ## kill: def $al killed $al killed $eax
	movl	-72(%rbp), %ecx
	addl	-80(%rbp), %ecx
	cmpl	-36(%rbp), %ecx
	movb	%al, -84(%rbp)          ## 1-byte Spill
	jge	LBB14_22
## %bb.21:                              ##   in Loop: Header=BB14_18 Depth=2
	movq	-64(%rbp), %rax
	movl	-72(%rbp), %ecx
	addl	-80(%rbp), %ecx
	movslq	%ecx, %rdx
	movzbl	(%rax,%rdx), %edi
	callq	_isdigit
	cmpl	$0, %eax
	setne	%sil
	movb	%sil, -84(%rbp)         ## 1-byte Spill
LBB14_22:                               ##   in Loop: Header=BB14_18 Depth=2
	movb	-84(%rbp), %al          ## 1-byte Reload
	testb	$1, %al
	jne	LBB14_23
	jmp	LBB14_24
LBB14_23:                               ##   in Loop: Header=BB14_18 Depth=2
	movl	-80(%rbp), %eax
	addl	$1, %eax
	movl	%eax, -80(%rbp)
	jmp	LBB14_18
LBB14_24:                               ##   in Loop: Header=BB14_1 Depth=1
	movl	-68(%rbp), %eax
	addl	-80(%rbp), %eax
	cmpl	-20(%rbp), %eax
	jge	LBB14_27
## %bb.25:                              ##   in Loop: Header=BB14_1 Depth=1
	movq	-56(%rbp), %rax
	movl	-68(%rbp), %ecx
	addl	-80(%rbp), %ecx
	movslq	%ecx, %rdx
	movzbl	(%rax,%rdx), %edi
	callq	_isdigit
	cmpl	$0, %eax
	je	LBB14_27
## %bb.26:
	movl	$1, -4(%rbp)
	jmp	LBB14_41
LBB14_27:                               ##   in Loop: Header=BB14_1 Depth=1
	movl	-72(%rbp), %eax
	addl	-80(%rbp), %eax
	cmpl	-36(%rbp), %eax
	jge	LBB14_30
## %bb.28:                              ##   in Loop: Header=BB14_1 Depth=1
	movq	-64(%rbp), %rax
	movl	-72(%rbp), %ecx
	addl	-80(%rbp), %ecx
	movslq	%ecx, %rdx
	movzbl	(%rax,%rdx), %edi
	callq	_isdigit
	cmpl	$0, %eax
	je	LBB14_30
## %bb.29:
	movl	$-1, -4(%rbp)
	jmp	LBB14_41
LBB14_30:                               ##   in Loop: Header=BB14_1 Depth=1
	movq	-56(%rbp), %rax
	movslq	-68(%rbp), %rcx
	addq	%rcx, %rax
	movq	-64(%rbp), %rcx
	movslq	-72(%rbp), %rdx
	addq	%rdx, %rcx
	movslq	-80(%rbp), %rdx
	movq	%rax, %rdi
	movq	%rcx, %rsi
	callq	_memcmp
	movl	%eax, -76(%rbp)
	cmpl	$0, -76(%rbp)
	je	LBB14_32
## %bb.31:
	movl	-76(%rbp), %eax
	movl	%eax, -4(%rbp)
	jmp	LBB14_41
LBB14_32:                               ##   in Loop: Header=BB14_1 Depth=1
	movl	-80(%rbp), %eax
	addl	-68(%rbp), %eax
	movl	%eax, -68(%rbp)
	movl	-80(%rbp), %eax
	addl	-72(%rbp), %eax
	movl	%eax, -72(%rbp)
## %bb.33:                              ##   in Loop: Header=BB14_1 Depth=1
	jmp	LBB14_34
LBB14_34:                               ##   in Loop: Header=BB14_1 Depth=1
	jmp	LBB14_39
LBB14_35:                               ##   in Loop: Header=BB14_1 Depth=1
	cmpl	$0, -76(%rbp)
	je	LBB14_37
## %bb.36:
	movl	-76(%rbp), %eax
	movl	%eax, -4(%rbp)
	jmp	LBB14_41
LBB14_37:                               ##   in Loop: Header=BB14_1 Depth=1
	movl	-68(%rbp), %eax
	addl	$1, %eax
	movl	%eax, -68(%rbp)
	movl	-72(%rbp), %eax
	addl	$1, %eax
	movl	%eax, -72(%rbp)
## %bb.38:                              ##   in Loop: Header=BB14_1 Depth=1
	jmp	LBB14_39
LBB14_39:                               ##   in Loop: Header=BB14_1 Depth=1
	jmp	LBB14_1
LBB14_40:
	movl	-20(%rbp), %eax
	subl	-68(%rbp), %eax
	movl	-36(%rbp), %ecx
	subl	-72(%rbp), %ecx
	subl	%ecx, %eax
	movl	%eax, -4(%rbp)
LBB14_41:
	movl	-4(%rbp), %eax
	addq	$96, %rsp
	popq	%rbp
	retq
	.cfi_endproc
                                        ## -- End function
	.globl	_sqlite3_decimal_init   ## -- Begin function sqlite3_decimal_init
	.p2align	4, 0x90
_sqlite3_decimal_init:                  ## @sqlite3_decimal_init
	.cfi_startproc
## %bb.0:
	pushq	%rbp
	.cfi_def_cfa_offset 16
	.cfi_offset %rbp, -16
	movq	%rsp, %rbp
	.cfi_def_cfa_register %rbp
	subq	$80, %rsp
	movq	%rdi, -8(%rbp)
	movq	%rsi, -16(%rbp)
	movq	%rdx, -24(%rbp)
	movl	$0, -28(%rbp)
	movl	$0, -32(%rbp)
LBB15_1:                                ## =>This Inner Loop Header: Depth=1
	xorl	%eax, %eax
                                        ## kill: def $al killed $al killed $eax
	movl	-32(%rbp), %ecx
	movl	%ecx, %edx
	cmpq	$5, %rdx
	movb	%al, -33(%rbp)          ## 1-byte Spill
	jae	LBB15_3
## %bb.2:                               ##   in Loop: Header=BB15_1 Depth=1
	cmpl	$0, -28(%rbp)
	sete	%al
	movb	%al, -33(%rbp)          ## 1-byte Spill
LBB15_3:                                ##   in Loop: Header=BB15_1 Depth=1
	movb	-33(%rbp), %al          ## 1-byte Reload
	testb	$1, %al
	jne	LBB15_4
	jmp	LBB15_6
LBB15_4:                                ##   in Loop: Header=BB15_1 Depth=1
	xorl	%eax, %eax
	movl	%eax, %r8d
	movq	-8(%rbp), %rdi
	movl	-32(%rbp), %eax
	movl	%eax, %ecx
	imulq	$24, %rcx, %rcx
	leaq	_sqlite3_decimal_init.aFunc(%rip), %rdx
	movq	%rdx, %rsi
	addq	%rcx, %rsi
	movq	(%rsi), %rsi
	movl	-32(%rbp), %eax
	movl	%eax, %ecx
	imulq	$24, %rcx, %rcx
	movq	%rdx, %r9
	addq	%rcx, %r9
	movl	8(%r9), %eax
	movl	-32(%rbp), %r10d
	movl	%r10d, %ecx
	imulq	$24, %rcx, %rcx
	addq	%rcx, %rdx
	movq	16(%rdx), %r9
	movl	%eax, %edx
	movl	$2099201, %ecx          ## imm = 0x200801
	movq	$0, (%rsp)
	movq	$0, 8(%rsp)
	callq	_sqlite3_create_function
	movl	%eax, -28(%rbp)
## %bb.5:                               ##   in Loop: Header=BB15_1 Depth=1
	movl	-32(%rbp), %eax
	addl	$1, %eax
	movl	%eax, -32(%rbp)
	jmp	LBB15_1
LBB15_6:
	cmpl	$0, -28(%rbp)
	jne	LBB15_8
## %bb.7:
	xorl	%eax, %eax
	movl	%eax, %r8d
	movq	-8(%rbp), %rdi
	leaq	L_.str.12(%rip), %rsi
	movl	$1, %edx
	movl	$2099201, %ecx          ## imm = 0x200801
	leaq	_decimalSumStep(%rip), %r9
	leaq	_decimalSumFinalize(%rip), %r10
	movq	%r10, (%rsp)
	leaq	_decimalSumValue(%rip), %r10
	movq	%r10, 8(%rsp)
	leaq	_decimalSumInverse(%rip), %r10
	movq	%r10, 16(%rsp)
	movq	$0, 24(%rsp)
	callq	_sqlite3_create_window_function
	movl	%eax, -28(%rbp)
LBB15_8:
	cmpl	$0, -28(%rbp)
	jne	LBB15_10
## %bb.9:
	xorl	%eax, %eax
	movl	%eax, %ecx
	movq	-8(%rbp), %rdi
	leaq	L_.str.7(%rip), %rsi
	movl	$1, %edx
	leaq	_decimalCollFunc(%rip), %r8
	callq	_sqlite3_create_collation
	movl	%eax, -28(%rbp)
LBB15_10:
	movl	-28(%rbp), %eax
	addq	$80, %rsp
	popq	%rbp
	retq
	.cfi_endproc
                                        ## -- End function
	.p2align	4, 0x90         ## -- Begin function decimalFunc
_decimalFunc:                           ## @decimalFunc
	.cfi_startproc
## %bb.0:
	pushq	%rbp
	.cfi_def_cfa_offset 16
	.cfi_offset %rbp, -16
	movq	%rsp, %rbp
	.cfi_def_cfa_register %rbp
	subq	$32, %rsp
	xorl	%eax, %eax
	xorl	%ecx, %ecx
                                        ## kill: def $rcx killed $ecx
	movq	%rdi, -8(%rbp)
	movl	%esi, -12(%rbp)
	movq	%rdx, -24(%rbp)
	movq	-8(%rbp), %rdi
	movq	-24(%rbp), %rdx
	movq	(%rdx), %rsi
	movl	%eax, %edx
	callq	_decimal_new
	movq	%rax, -32(%rbp)
	movq	-8(%rbp), %rdi
	movq	-32(%rbp), %rsi
	callq	_decimal_result
	movq	-32(%rbp), %rdi
	callq	_decimal_free
	addq	$32, %rsp
	popq	%rbp
	retq
	.cfi_endproc
                                        ## -- End function
	.p2align	4, 0x90         ## -- Begin function decimalCmpFunc
_decimalCmpFunc:                        ## @decimalCmpFunc
	.cfi_startproc
## %bb.0:
	pushq	%rbp
	.cfi_def_cfa_offset 16
	.cfi_offset %rbp, -16
	movq	%rsp, %rbp
	.cfi_def_cfa_register %rbp
	subq	$48, %rsp
	xorl	%eax, %eax
	xorl	%ecx, %ecx
                                        ## kill: def $rcx killed $ecx
	movq	%rdi, -8(%rbp)
	movl	%esi, -12(%rbp)
	movq	%rdx, -24(%rbp)
	movq	$0, -32(%rbp)
	movq	$0, -40(%rbp)
	movq	-8(%rbp), %rdi
	movq	-24(%rbp), %rdx
	movq	(%rdx), %rsi
	movl	%eax, %edx
	callq	_decimal_new
	movq	%rax, -32(%rbp)
	cmpq	$0, -32(%rbp)
	je	LBB17_2
## %bb.1:
	movq	-32(%rbp), %rax
	movsbl	2(%rax), %ecx
	cmpl	$0, %ecx
	je	LBB17_3
LBB17_2:
	jmp	LBB17_12
LBB17_3:
	xorl	%edx, %edx
	xorl	%eax, %eax
	movl	%eax, %ecx
	movq	-8(%rbp), %rdi
	movq	-24(%rbp), %rsi
	movq	8(%rsi), %rsi
	callq	_decimal_new
	movq	%rax, -40(%rbp)
	cmpq	$0, -40(%rbp)
	je	LBB17_5
## %bb.4:
	movq	-40(%rbp), %rax
	movsbl	2(%rax), %ecx
	cmpl	$0, %ecx
	je	LBB17_6
LBB17_5:
	jmp	LBB17_12
LBB17_6:
	movq	-32(%rbp), %rdi
	movq	-40(%rbp), %rsi
	callq	_decimal_cmp
	movl	%eax, -44(%rbp)
	cmpl	$0, -44(%rbp)
	jge	LBB17_8
## %bb.7:
	movl	$-1, -44(%rbp)
	jmp	LBB17_11
LBB17_8:
	cmpl	$0, -44(%rbp)
	jle	LBB17_10
## %bb.9:
	movl	$1, -44(%rbp)
LBB17_10:
	jmp	LBB17_11
LBB17_11:
	movq	-8(%rbp), %rdi
	movl	-44(%rbp), %esi
	callq	_sqlite3_result_int
LBB17_12:
	movq	-32(%rbp), %rdi
	callq	_decimal_free
	movq	-40(%rbp), %rdi
	callq	_decimal_free
	addq	$48, %rsp
	popq	%rbp
	retq
	.cfi_endproc
                                        ## -- End function
	.p2align	4, 0x90         ## -- Begin function decimalAddFunc
_decimalAddFunc:                        ## @decimalAddFunc
	.cfi_startproc
## %bb.0:
	pushq	%rbp
	.cfi_def_cfa_offset 16
	.cfi_offset %rbp, -16
	movq	%rsp, %rbp
	.cfi_def_cfa_register %rbp
	subq	$48, %rsp
	xorl	%eax, %eax
	xorl	%ecx, %ecx
                                        ## kill: def $rcx killed $ecx
	movq	%rdi, -8(%rbp)
	movl	%esi, -12(%rbp)
	movq	%rdx, -24(%rbp)
	movq	-8(%rbp), %rdi
	movq	-24(%rbp), %rdx
	movq	(%rdx), %rsi
	movl	%eax, %edx
	callq	_decimal_new
	xorl	%edx, %edx
	xorl	%r8d, %r8d
	movl	%r8d, %ecx
	movq	%rax, -32(%rbp)
	movq	-8(%rbp), %rdi
	movq	-24(%rbp), %rax
	movq	8(%rax), %rsi
	callq	_decimal_new
	movq	%rax, -40(%rbp)
	movq	-32(%rbp), %rdi
	movq	-40(%rbp), %rsi
	callq	_decimal_add
	movq	-8(%rbp), %rdi
	movq	-32(%rbp), %rsi
	callq	_decimal_result
	movq	-32(%rbp), %rdi
	callq	_decimal_free
	movq	-40(%rbp), %rdi
	callq	_decimal_free
	addq	$48, %rsp
	popq	%rbp
	retq
	.cfi_endproc
                                        ## -- End function
	.p2align	4, 0x90         ## -- Begin function decimalSubFunc
_decimalSubFunc:                        ## @decimalSubFunc
	.cfi_startproc
## %bb.0:
	pushq	%rbp
	.cfi_def_cfa_offset 16
	.cfi_offset %rbp, -16
	movq	%rsp, %rbp
	.cfi_def_cfa_register %rbp
	subq	$48, %rsp
	xorl	%eax, %eax
	xorl	%ecx, %ecx
                                        ## kill: def $rcx killed $ecx
	movq	%rdi, -8(%rbp)
	movl	%esi, -12(%rbp)
	movq	%rdx, -24(%rbp)
	movq	-8(%rbp), %rdi
	movq	-24(%rbp), %rdx
	movq	(%rdx), %rsi
	movl	%eax, %edx
	callq	_decimal_new
	xorl	%edx, %edx
	xorl	%r8d, %r8d
	movl	%r8d, %ecx
	movq	%rax, -32(%rbp)
	movq	-8(%rbp), %rdi
	movq	-24(%rbp), %rax
	movq	8(%rax), %rsi
	callq	_decimal_new
	movq	%rax, -40(%rbp)
	cmpq	$0, -40(%rbp)
	je	LBB19_2
## %bb.1:
	movq	-40(%rbp), %rax
	cmpb	$0, (%rax)
	setne	%cl
	xorb	$-1, %cl
	andb	$1, %cl
	movzbl	%cl, %edx
                                        ## kill: def $dl killed $dl killed $edx
	movq	-40(%rbp), %rax
	movb	%dl, (%rax)
	movq	-32(%rbp), %rdi
	movq	-40(%rbp), %rsi
	callq	_decimal_add
	movq	-8(%rbp), %rdi
	movq	-32(%rbp), %rsi
	callq	_decimal_result
LBB19_2:
	movq	-32(%rbp), %rdi
	callq	_decimal_free
	movq	-40(%rbp), %rdi
	callq	_decimal_free
	addq	$48, %rsp
	popq	%rbp
	retq
	.cfi_endproc
                                        ## -- End function
	.p2align	4, 0x90         ## -- Begin function decimalMulFunc
_decimalMulFunc:                        ## @decimalMulFunc
	.cfi_startproc
## %bb.0:
	pushq	%rbp
	.cfi_def_cfa_offset 16
	.cfi_offset %rbp, -16
	movq	%rsp, %rbp
	.cfi_def_cfa_register %rbp
	subq	$80, %rsp
	xorl	%eax, %eax
	xorl	%ecx, %ecx
                                        ## kill: def $rcx killed $ecx
	movq	%rdi, -8(%rbp)
	movl	%esi, -12(%rbp)
	movq	%rdx, -24(%rbp)
	movq	-8(%rbp), %rdi
	movq	-24(%rbp), %rdx
	movq	(%rdx), %rsi
	movl	%eax, %edx
	callq	_decimal_new
	xorl	%edx, %edx
	xorl	%r8d, %r8d
	movl	%r8d, %ecx
	movq	%rax, -32(%rbp)
	movq	-8(%rbp), %rdi
	movq	-24(%rbp), %rax
	movq	8(%rax), %rsi
	callq	_decimal_new
	movq	%rax, -40(%rbp)
	movq	$0, -48(%rbp)
	cmpq	$0, -32(%rbp)
	je	LBB20_6
## %bb.1:
	movq	-32(%rbp), %rax
	movsbl	1(%rax), %ecx
	cmpl	$0, %ecx
	jne	LBB20_6
## %bb.2:
	movq	-32(%rbp), %rax
	movsbl	2(%rax), %ecx
	cmpl	$0, %ecx
	jne	LBB20_6
## %bb.3:
	cmpq	$0, -40(%rbp)
	je	LBB20_6
## %bb.4:
	movq	-40(%rbp), %rax
	movsbl	1(%rax), %ecx
	cmpl	$0, %ecx
	jne	LBB20_6
## %bb.5:
	movq	-40(%rbp), %rax
	movsbl	2(%rax), %ecx
	cmpl	$0, %ecx
	je	LBB20_7
LBB20_6:
	jmp	LBB20_25
LBB20_7:
	movq	-32(%rbp), %rax
	movl	4(%rax), %ecx
	movq	-40(%rbp), %rax
	addl	4(%rax), %ecx
	addl	$2, %ecx
	movslq	%ecx, %rdi
	callq	_sqlite3_malloc64
	movq	%rax, -48(%rbp)
	cmpq	$0, -48(%rbp)
	jne	LBB20_9
## %bb.8:
	movq	-8(%rbp), %rdi
	callq	_sqlite3_result_error_nomem
	jmp	LBB20_25
LBB20_9:
	xorl	%esi, %esi
	movq	$-1, %rcx
	movq	-48(%rbp), %rdi
	movq	-32(%rbp), %rax
	movl	4(%rax), %edx
	movq	-40(%rbp), %rax
	addl	4(%rax), %edx
	addl	$2, %edx
	movslq	%edx, %rdx
	callq	___memset_chk
	movq	-32(%rbp), %rcx
	movl	8(%rcx), %esi
	movl	%esi, -64(%rbp)
	movq	-40(%rbp), %rcx
	movl	8(%rcx), %esi
	cmpl	-64(%rbp), %esi
	jge	LBB20_11
## %bb.10:
	movq	-40(%rbp), %rax
	movl	8(%rax), %ecx
	movl	%ecx, -64(%rbp)
LBB20_11:
	movq	-32(%rbp), %rax
	movl	4(%rax), %ecx
	subl	$1, %ecx
	movl	%ecx, -52(%rbp)
LBB20_12:                               ## =>This Loop Header: Depth=1
                                        ##     Child Loop BB20_14 Depth 2
	cmpl	$0, -52(%rbp)
	jl	LBB20_19
## %bb.13:                              ##   in Loop: Header=BB20_12 Depth=1
	movq	-32(%rbp), %rax
	movq	16(%rax), %rax
	movslq	-52(%rbp), %rcx
	movb	(%rax,%rcx), %dl
	movb	%dl, -65(%rbp)
	movl	$0, -72(%rbp)
	movq	-40(%rbp), %rax
	movl	4(%rax), %esi
	subl	$1, %esi
	movl	%esi, -56(%rbp)
	movl	-52(%rbp), %esi
	addl	-56(%rbp), %esi
	addl	$3, %esi
	movl	%esi, -60(%rbp)
LBB20_14:                               ##   Parent Loop BB20_12 Depth=1
                                        ## =>  This Inner Loop Header: Depth=2
	cmpl	$0, -56(%rbp)
	jl	LBB20_17
## %bb.15:                              ##   in Loop: Header=BB20_14 Depth=2
	movq	-48(%rbp), %rax
	movslq	-60(%rbp), %rcx
	movsbl	(%rax,%rcx), %edx
	movsbl	-65(%rbp), %esi
	movq	-40(%rbp), %rax
	movq	16(%rax), %rax
	movslq	-56(%rbp), %rcx
	movsbl	(%rax,%rcx), %edi
	imull	%edi, %esi
	addl	%esi, %edx
	addl	-72(%rbp), %edx
	movl	%edx, -76(%rbp)
	movl	-76(%rbp), %eax
	cltd
	movl	$10, %esi
	idivl	%esi
                                        ## kill: def $dl killed $dl killed $edx
	movq	-48(%rbp), %rcx
	movslq	-60(%rbp), %r8
	movb	%dl, (%rcx,%r8)
	movl	-76(%rbp), %edi
	movl	%edi, %eax
	cltd
	idivl	%esi
	movl	%eax, -72(%rbp)
## %bb.16:                              ##   in Loop: Header=BB20_14 Depth=2
	movl	-56(%rbp), %eax
	addl	$-1, %eax
	movl	%eax, -56(%rbp)
	movl	-60(%rbp), %eax
	addl	$-1, %eax
	movl	%eax, -60(%rbp)
	jmp	LBB20_14
LBB20_17:                               ##   in Loop: Header=BB20_12 Depth=1
	movq	-48(%rbp), %rax
	movslq	-60(%rbp), %rcx
	movsbl	(%rax,%rcx), %edx
	addl	-72(%rbp), %edx
	movl	%edx, -76(%rbp)
	movl	-76(%rbp), %eax
	cltd
	movl	$10, %esi
	idivl	%esi
                                        ## kill: def $dl killed $dl killed $edx
	movq	-48(%rbp), %rcx
	movslq	-60(%rbp), %rdi
	movb	%dl, (%rcx,%rdi)
	movl	-76(%rbp), %r8d
	movl	%r8d, %eax
	cltd
	idivl	%esi
	movq	-48(%rbp), %rcx
	movl	-60(%rbp), %esi
	subl	$1, %esi
	movslq	%esi, %rdi
	movsbl	(%rcx,%rdi), %esi
	addl	%eax, %esi
                                        ## kill: def $sil killed $sil killed $esi
	movb	%sil, (%rcx,%rdi)
## %bb.18:                              ##   in Loop: Header=BB20_12 Depth=1
	movl	-52(%rbp), %eax
	addl	$-1, %eax
	movl	%eax, -52(%rbp)
	jmp	LBB20_12
LBB20_19:
	movq	-32(%rbp), %rax
	movq	16(%rax), %rdi
	callq	_sqlite3_free
	movq	-48(%rbp), %rax
	movq	-32(%rbp), %rcx
	movq	%rax, 16(%rcx)
	movq	$0, -48(%rbp)
	movq	-40(%rbp), %rax
	movl	4(%rax), %edx
	addl	$2, %edx
	movq	-32(%rbp), %rax
	addl	4(%rax), %edx
	movl	%edx, 4(%rax)
	movq	-40(%rbp), %rax
	movl	8(%rax), %edx
	movq	-32(%rbp), %rax
	addl	8(%rax), %edx
	movl	%edx, 8(%rax)
	movq	-40(%rbp), %rax
	movsbl	(%rax), %edx
	movq	-32(%rbp), %rax
	movsbl	(%rax), %esi
	xorl	%edx, %esi
                                        ## kill: def $sil killed $sil killed $esi
	movb	%sil, (%rax)
LBB20_20:                               ## =>This Inner Loop Header: Depth=1
	xorl	%eax, %eax
                                        ## kill: def $al killed $al killed $eax
	movq	-32(%rbp), %rcx
	movl	8(%rcx), %edx
	cmpl	-64(%rbp), %edx
	movb	%al, -77(%rbp)          ## 1-byte Spill
	jle	LBB20_22
## %bb.21:                              ##   in Loop: Header=BB20_20 Depth=1
	movq	-32(%rbp), %rax
	movq	16(%rax), %rax
	movq	-32(%rbp), %rcx
	movl	4(%rcx), %edx
	subl	$1, %edx
	movslq	%edx, %rcx
	movsbl	(%rax,%rcx), %edx
	cmpl	$0, %edx
	sete	%sil
	movb	%sil, -77(%rbp)         ## 1-byte Spill
LBB20_22:                               ##   in Loop: Header=BB20_20 Depth=1
	movb	-77(%rbp), %al          ## 1-byte Reload
	testb	$1, %al
	jne	LBB20_23
	jmp	LBB20_24
LBB20_23:                               ##   in Loop: Header=BB20_20 Depth=1
	movq	-32(%rbp), %rax
	movl	8(%rax), %ecx
	addl	$-1, %ecx
	movl	%ecx, 8(%rax)
	movq	-32(%rbp), %rax
	movl	4(%rax), %ecx
	addl	$-1, %ecx
	movl	%ecx, 4(%rax)
	jmp	LBB20_20
LBB20_24:
	movq	-8(%rbp), %rdi
	movq	-32(%rbp), %rsi
	callq	_decimal_result
LBB20_25:
	movq	-48(%rbp), %rdi
	callq	_sqlite3_free
	movq	-32(%rbp), %rdi
	callq	_decimal_free
	movq	-40(%rbp), %rdi
	callq	_decimal_free
	addq	$80, %rsp
	popq	%rbp
	retq
	.cfi_endproc
                                        ## -- End function
	.p2align	4, 0x90         ## -- Begin function decimalSumStep
_decimalSumStep:                        ## @decimalSumStep
	.cfi_startproc
## %bb.0:
	pushq	%rbp
	.cfi_def_cfa_offset 16
	.cfi_offset %rbp, -16
	movq	%rsp, %rbp
	.cfi_def_cfa_register %rbp
	subq	$48, %rsp
	movq	%rdi, -8(%rbp)
	movl	%esi, -12(%rbp)
	movq	%rdx, -24(%rbp)
	movq	-8(%rbp), %rdi
	movl	$24, %esi
	callq	_sqlite3_aggregate_context
	movq	%rax, -32(%rbp)
	cmpq	$0, -32(%rbp)
	jne	LBB21_2
## %bb.1:
	jmp	LBB21_10
LBB21_2:
	movq	-32(%rbp), %rax
	cmpb	$0, 3(%rax)
	jne	LBB21_7
## %bb.3:
	movq	-32(%rbp), %rax
	movb	$1, 3(%rax)
	movl	$2, %edi
	callq	_sqlite3_malloc
	movq	-32(%rbp), %rcx
	movq	%rax, 16(%rcx)
	movq	-32(%rbp), %rax
	cmpq	$0, 16(%rax)
	jne	LBB21_5
## %bb.4:
	movq	-32(%rbp), %rax
	movb	$1, 1(%rax)
	jmp	LBB21_6
LBB21_5:
	movq	-32(%rbp), %rax
	movq	16(%rax), %rax
	movb	$0, (%rax)
LBB21_6:
	movq	-32(%rbp), %rax
	movl	$1, 4(%rax)
	movq	-32(%rbp), %rax
	movl	$0, 8(%rax)
LBB21_7:
	movq	-24(%rbp), %rax
	movq	(%rax), %rdi
	callq	_sqlite3_value_type
	cmpl	$5, %eax
	jne	LBB21_9
## %bb.8:
	jmp	LBB21_10
LBB21_9:
	xorl	%edx, %edx
	xorl	%eax, %eax
	movl	%eax, %ecx
	movq	-8(%rbp), %rdi
	movq	-24(%rbp), %rsi
	movq	(%rsi), %rsi
	callq	_decimal_new
	movq	%rax, -40(%rbp)
	movq	-32(%rbp), %rdi
	movq	-40(%rbp), %rsi
	callq	_decimal_add
	movq	-40(%rbp), %rdi
	callq	_decimal_free
LBB21_10:
	addq	$48, %rsp
	popq	%rbp
	retq
	.cfi_endproc
                                        ## -- End function
	.p2align	4, 0x90         ## -- Begin function decimalSumFinalize
_decimalSumFinalize:                    ## @decimalSumFinalize
	.cfi_startproc
## %bb.0:
	pushq	%rbp
	.cfi_def_cfa_offset 16
	.cfi_offset %rbp, -16
	movq	%rsp, %rbp
	.cfi_def_cfa_register %rbp
	subq	$16, %rsp
	xorl	%esi, %esi
	movq	%rdi, -8(%rbp)
	movq	-8(%rbp), %rdi
	callq	_sqlite3_aggregate_context
	movq	%rax, -16(%rbp)
	cmpq	$0, -16(%rbp)
	jne	LBB22_2
## %bb.1:
	jmp	LBB22_3
LBB22_2:
	movq	-8(%rbp), %rdi
	movq	-16(%rbp), %rsi
	callq	_decimal_result
	movq	-16(%rbp), %rdi
	callq	_decimal_clear
LBB22_3:
	addq	$16, %rsp
	popq	%rbp
	retq
	.cfi_endproc
                                        ## -- End function
	.p2align	4, 0x90         ## -- Begin function decimalSumValue
_decimalSumValue:                       ## @decimalSumValue
	.cfi_startproc
## %bb.0:
	pushq	%rbp
	.cfi_def_cfa_offset 16
	.cfi_offset %rbp, -16
	movq	%rsp, %rbp
	.cfi_def_cfa_register %rbp
	subq	$16, %rsp
	xorl	%esi, %esi
	movq	%rdi, -8(%rbp)
	movq	-8(%rbp), %rdi
	callq	_sqlite3_aggregate_context
	movq	%rax, -16(%rbp)
	cmpq	$0, -16(%rbp)
	jne	LBB23_2
## %bb.1:
	jmp	LBB23_3
LBB23_2:
	movq	-8(%rbp), %rdi
	movq	-16(%rbp), %rsi
	callq	_decimal_result
LBB23_3:
	addq	$16, %rsp
	popq	%rbp
	retq
	.cfi_endproc
                                        ## -- End function
	.p2align	4, 0x90         ## -- Begin function decimalSumInverse
_decimalSumInverse:                     ## @decimalSumInverse
	.cfi_startproc
## %bb.0:
	pushq	%rbp
	.cfi_def_cfa_offset 16
	.cfi_offset %rbp, -16
	movq	%rsp, %rbp
	.cfi_def_cfa_register %rbp
	subq	$48, %rsp
	movq	%rdi, -8(%rbp)
	movl	%esi, -12(%rbp)
	movq	%rdx, -24(%rbp)
	movq	-8(%rbp), %rdi
	movl	$24, %esi
	callq	_sqlite3_aggregate_context
	movq	%rax, -32(%rbp)
	cmpq	$0, -32(%rbp)
	jne	LBB24_2
## %bb.1:
	jmp	LBB24_7
LBB24_2:
	movq	-24(%rbp), %rax
	movq	(%rax), %rdi
	callq	_sqlite3_value_type
	cmpl	$5, %eax
	jne	LBB24_4
## %bb.3:
	jmp	LBB24_7
LBB24_4:
	xorl	%edx, %edx
	xorl	%eax, %eax
	movl	%eax, %ecx
	movq	-8(%rbp), %rdi
	movq	-24(%rbp), %rsi
	movq	(%rsi), %rsi
	callq	_decimal_new
	movq	%rax, -40(%rbp)
	cmpq	$0, -40(%rbp)
	je	LBB24_6
## %bb.5:
	movq	-40(%rbp), %rax
	cmpb	$0, (%rax)
	setne	%cl
	xorb	$-1, %cl
	andb	$1, %cl
	movzbl	%cl, %edx
                                        ## kill: def $dl killed $dl killed $edx
	movq	-40(%rbp), %rax
	movb	%dl, (%rax)
LBB24_6:
	movq	-32(%rbp), %rdi
	movq	-40(%rbp), %rsi
	callq	_decimal_add
	movq	-40(%rbp), %rdi
	callq	_decimal_free
LBB24_7:
	addq	$48, %rsp
	popq	%rbp
	retq
	.cfi_endproc
                                        ## -- End function
	.p2align	4, 0x90         ## -- Begin function decimalCollFunc
_decimalCollFunc:                       ## @decimalCollFunc
	.cfi_startproc
## %bb.0:
	pushq	%rbp
	.cfi_def_cfa_offset 16
	.cfi_offset %rbp, -16
	movq	%rsp, %rbp
	.cfi_def_cfa_register %rbp
	subq	$80, %rsp
	xorl	%eax, %eax
	movl	%eax, %r9d
	movq	%rdi, -8(%rbp)
	movl	%esi, -12(%rbp)
	movq	%rdx, -24(%rbp)
	movl	%ecx, -28(%rbp)
	movq	%r8, -40(%rbp)
	movq	-24(%rbp), %rdx
	movq	%rdx, -48(%rbp)
	movq	-40(%rbp), %rdx
	movq	%rdx, -56(%rbp)
	movl	-12(%rbp), %edx
	movq	-48(%rbp), %rcx
	movq	%r9, %rdi
	movq	%r9, %rsi
	callq	_decimal_new
	xorl	%edx, %edx
	movl	%edx, %ecx
	movq	%rax, -64(%rbp)
	movl	-28(%rbp), %edx
	movq	-56(%rbp), %rax
	movq	%rcx, %rdi
	movq	%rcx, %rsi
	movq	%rax, %rcx
	callq	_decimal_new
	movq	%rax, -72(%rbp)
	cmpq	$0, -64(%rbp)
	je	LBB25_2
## %bb.1:
	cmpq	$0, -72(%rbp)
	jne	LBB25_3
LBB25_2:
	movl	$0, -76(%rbp)
	jmp	LBB25_4
LBB25_3:
	movq	-64(%rbp), %rdi
	movq	-72(%rbp), %rsi
	callq	_decimal_cmp
	movl	%eax, -76(%rbp)
LBB25_4:
	movq	-64(%rbp), %rdi
	callq	_decimal_free
	movq	-72(%rbp), %rdi
	callq	_decimal_free
	movl	-76(%rbp), %eax
	addq	$80, %rsp
	popq	%rbp
	retq
	.cfi_endproc
                                        ## -- End function
	.globl	_sqlite3_ieee_init      ## -- Begin function sqlite3_ieee_init
	.p2align	4, 0x90
_sqlite3_ieee_init:                     ## @sqlite3_ieee_init
	.cfi_startproc
## %bb.0:
	pushq	%rbp
	.cfi_def_cfa_offset 16
	.cfi_offset %rbp, -16
	movq	%rsp, %rbp
	.cfi_def_cfa_register %rbp
	subq	$80, %rsp
	movq	%rdi, -8(%rbp)
	movq	%rsi, -16(%rbp)
	movq	%rdx, -24(%rbp)
	movl	$0, -32(%rbp)
	movl	$0, -28(%rbp)
LBB26_1:                                ## =>This Inner Loop Header: Depth=1
	xorl	%eax, %eax
                                        ## kill: def $al killed $al killed $eax
	movl	-28(%rbp), %ecx
	movl	%ecx, %edx
	cmpq	$6, %rdx
	movb	%al, -33(%rbp)          ## 1-byte Spill
	jae	LBB26_3
## %bb.2:                               ##   in Loop: Header=BB26_1 Depth=1
	cmpl	$0, -32(%rbp)
	sete	%al
	movb	%al, -33(%rbp)          ## 1-byte Spill
LBB26_3:                                ##   in Loop: Header=BB26_1 Depth=1
	movb	-33(%rbp), %al          ## 1-byte Reload
	testb	$1, %al
	jne	LBB26_4
	jmp	LBB26_6
LBB26_4:                                ##   in Loop: Header=BB26_1 Depth=1
	xorl	%eax, %eax
	movl	%eax, %ecx
	movq	-8(%rbp), %rdi
	movl	-28(%rbp), %eax
	movl	%eax, %edx
	imulq	$24, %rdx, %rdx
	leaq	_sqlite3_ieee_init.aFunc(%rip), %rsi
	movq	%rsi, %r8
	addq	%rdx, %r8
	movq	(%r8), %rdx
	movl	-28(%rbp), %eax
	movl	%eax, %r8d
	imulq	$24, %r8, %r8
	movq	%rsi, %r9
	addq	%r8, %r9
	movl	8(%r9), %eax
	movl	-28(%rbp), %r10d
	movl	%r10d, %r8d
	imulq	$24, %r8, %r8
	movq	%rsi, %r9
	addq	%r8, %r9
	addq	$12, %r9
	movl	-28(%rbp), %r10d
	movl	%r10d, %r8d
	imulq	$24, %r8, %r8
	addq	%r8, %rsi
	movq	16(%rsi), %rsi
	movq	%rsi, -48(%rbp)         ## 8-byte Spill
	movq	%rdx, %rsi
	movl	%eax, %edx
	movl	$2097153, %eax          ## imm = 0x200001
	movq	%rcx, -56(%rbp)         ## 8-byte Spill
	movl	%eax, %ecx
	movq	%r9, %r8
	movq	-48(%rbp), %r9          ## 8-byte Reload
	movq	$0, (%rsp)
	movq	$0, 8(%rsp)
	callq	_sqlite3_create_function
	movl	%eax, -32(%rbp)
## %bb.5:                               ##   in Loop: Header=BB26_1 Depth=1
	movl	-28(%rbp), %eax
	addl	$1, %eax
	movl	%eax, -28(%rbp)
	jmp	LBB26_1
LBB26_6:
	movl	-32(%rbp), %eax
	addq	$80, %rsp
	popq	%rbp
	retq
	.cfi_endproc
                                        ## -- End function
	.p2align	4, 0x90         ## -- Begin function ieee754func
_ieee754func:                           ## @ieee754func
	.cfi_startproc
## %bb.0:
	pushq	%rbp
	.cfi_def_cfa_offset 16
	.cfi_offset %rbp, -16
	movq	%rsp, %rbp
	.cfi_def_cfa_register %rbp
	subq	$272, %rsp              ## imm = 0x110
	movq	___stack_chk_guard@GOTPCREL(%rip), %rax
	movq	(%rax), %rax
	movq	%rax, -8(%rbp)
	movq	%rdi, -120(%rbp)
	movl	%esi, -124(%rbp)
	movq	%rdx, -136(%rbp)
	cmpl	$1, -124(%rbp)
	jne	LBB27_31
## %bb.1:
	movq	-136(%rbp), %rax
	movq	(%rax), %rdi
	callq	_sqlite3_value_type
	cmpl	$4, %eax
	jne	LBB27_8
## %bb.2:
	movq	-136(%rbp), %rax
	movq	(%rax), %rdi
	callq	_sqlite3_value_bytes
	movslq	%eax, %rcx
	cmpq	$8, %rcx
	jne	LBB27_8
## %bb.3:
	movq	-136(%rbp), %rax
	movq	(%rax), %rdi
	callq	_sqlite3_value_blob
	movq	%rax, -176(%rbp)
	movq	$0, -192(%rbp)
	movl	$0, -180(%rbp)
LBB27_4:                                ## =>This Inner Loop Header: Depth=1
	movl	-180(%rbp), %eax
	movl	%eax, %ecx
	cmpq	$8, %rcx
	jae	LBB27_7
## %bb.5:                               ##   in Loop: Header=BB27_4 Depth=1
	movq	-192(%rbp), %rax
	shlq	$8, %rax
	movq	-176(%rbp), %rcx
	movl	-180(%rbp), %edx
	movl	%edx, %esi
	movzbl	(%rcx,%rsi), %edx
	movl	%edx, %ecx
	orq	%rcx, %rax
	movq	%rax, -192(%rbp)
## %bb.6:                               ##   in Loop: Header=BB27_4 Depth=1
	movl	-180(%rbp), %eax
	addl	$1, %eax
	movl	%eax, -180(%rbp)
	jmp	LBB27_4
LBB27_7:
	movq	-192(%rbp), %rax
	movq	%rax, -160(%rbp)
	jmp	LBB27_9
LBB27_8:
	movq	-136(%rbp), %rax
	movq	(%rax), %rdi
	callq	_sqlite3_value_double
	movsd	%xmm0, -160(%rbp)
LBB27_9:
	xorps	%xmm0, %xmm0
	ucomisd	-160(%rbp), %xmm0
	jbe	LBB27_11
## %bb.10:
	movl	$1, -168(%rbp)
	movsd	-160(%rbp), %xmm0       ## xmm0 = mem[0],zero
	movq	%xmm0, %rax
	movabsq	$-9223372036854775808, %rcx ## imm = 0x8000000000000000
	xorq	%rcx, %rax
	movq	%rax, %xmm0
	movsd	%xmm0, -160(%rbp)
	jmp	LBB27_12
LBB27_11:
	movl	$0, -168(%rbp)
LBB27_12:
	movq	-160(%rbp), %rax
	movq	%rax, -152(%rbp)
	cmpq	$0, -152(%rbp)
	jne	LBB27_14
## %bb.13:
	movl	$0, -164(%rbp)
	movq	$0, -144(%rbp)
	jmp	LBB27_26
LBB27_14:
	movq	-152(%rbp), %rax
	sarq	$52, %rax
                                        ## kill: def $eax killed $eax killed $rax
	movl	%eax, -164(%rbp)
	movabsq	$4503599627370495, %rcx ## imm = 0xFFFFFFFFFFFFF
	andq	-152(%rbp), %rcx
	movq	%rcx, -144(%rbp)
	cmpl	$0, -164(%rbp)
	jne	LBB27_16
## %bb.15:
	movq	-144(%rbp), %rax
	shlq	$1, %rax
	movq	%rax, -144(%rbp)
	jmp	LBB27_17
LBB27_16:
	movabsq	$4503599627370496, %rax ## imm = 0x10000000000000
	orq	-144(%rbp), %rax
	movq	%rax, -144(%rbp)
LBB27_17:
	jmp	LBB27_18
LBB27_18:                               ## =>This Inner Loop Header: Depth=1
	xorl	%eax, %eax
                                        ## kill: def $al killed $al killed $eax
	cmpl	$1075, -164(%rbp)       ## imm = 0x433
	movb	%al, -229(%rbp)         ## 1-byte Spill
	jge	LBB27_21
## %bb.19:                              ##   in Loop: Header=BB27_18 Depth=1
	xorl	%eax, %eax
                                        ## kill: def $al killed $al killed $eax
	cmpq	$0, -144(%rbp)
	movb	%al, -229(%rbp)         ## 1-byte Spill
	jle	LBB27_21
## %bb.20:                              ##   in Loop: Header=BB27_18 Depth=1
	movq	-144(%rbp), %rax
	andq	$1, %rax
	cmpq	$0, %rax
	sete	%cl
	movb	%cl, -229(%rbp)         ## 1-byte Spill
LBB27_21:                               ##   in Loop: Header=BB27_18 Depth=1
	movb	-229(%rbp), %al         ## 1-byte Reload
	testb	$1, %al
	jne	LBB27_22
	jmp	LBB27_23
LBB27_22:                               ##   in Loop: Header=BB27_18 Depth=1
	movq	-144(%rbp), %rax
	sarq	$1, %rax
	movq	%rax, -144(%rbp)
	movl	-164(%rbp), %ecx
	addl	$1, %ecx
	movl	%ecx, -164(%rbp)
	jmp	LBB27_18
LBB27_23:
	cmpl	$0, -168(%rbp)
	je	LBB27_25
## %bb.24:
	xorl	%eax, %eax
	movl	%eax, %ecx
	subq	-144(%rbp), %rcx
	movq	%rcx, -144(%rbp)
LBB27_25:
	jmp	LBB27_26
LBB27_26:
	movq	-120(%rbp), %rdi
	callq	_sqlite3_user_data
	movl	(%rax), %ecx
	testl	%ecx, %ecx
	movl	%ecx, -236(%rbp)        ## 4-byte Spill
	je	LBB27_27
	jmp	LBB27_67
LBB27_67:
	movl	-236(%rbp), %eax        ## 4-byte Reload
	subl	$1, %eax
	je	LBB27_28
	jmp	LBB27_68
LBB27_68:
	movl	-236(%rbp), %eax        ## 4-byte Reload
	subl	$2, %eax
	je	LBB27_29
	jmp	LBB27_30
LBB27_27:
	leaq	-112(%rbp), %rsi
	movq	-144(%rbp), %rcx
	movl	-164(%rbp), %eax
	subl	$1075, %eax             ## imm = 0x433
	movl	$100, %edi
	leaq	L_.str.136(%rip), %rdx
	movl	%eax, %r8d
	movb	$0, %al
	callq	_sqlite3_snprintf
	leaq	-112(%rbp), %rsi
	movq	-120(%rbp), %rdi
	movl	$4294967295, %edx       ## imm = 0xFFFFFFFF
	movq	$-1, %rcx
	movq	%rax, -248(%rbp)        ## 8-byte Spill
	callq	_sqlite3_result_text
	jmp	LBB27_30
LBB27_28:
	movq	-120(%rbp), %rdi
	movq	-144(%rbp), %rsi
	callq	_sqlite3_result_int64
	jmp	LBB27_30
LBB27_29:
	movq	-120(%rbp), %rdi
	movl	-164(%rbp), %eax
	subl	$1075, %eax             ## imm = 0x433
	movl	%eax, %esi
	callq	_sqlite3_result_int
LBB27_30:
	jmp	LBB27_64
LBB27_31:
	movl	$0, -228(%rbp)
	movq	-136(%rbp), %rax
	movq	(%rax), %rdi
	callq	_sqlite3_value_int64
	movq	%rax, -200(%rbp)
	movq	-136(%rbp), %rax
	movq	8(%rax), %rdi
	callq	_sqlite3_value_int64
	movq	%rax, -208(%rbp)
	cmpq	$10000, -208(%rbp)      ## imm = 0x2710
	jle	LBB27_33
## %bb.32:
	movq	$10000, -208(%rbp)      ## imm = 0x2710
	jmp	LBB27_36
LBB27_33:
	cmpq	$-10000, -208(%rbp)     ## imm = 0xD8F0
	jge	LBB27_35
## %bb.34:
	movq	$-10000, -208(%rbp)     ## imm = 0xD8F0
LBB27_35:
	jmp	LBB27_36
LBB27_36:
	cmpq	$0, -200(%rbp)
	jge	LBB27_40
## %bb.37:
	xorl	%eax, %eax
	movl	%eax, %ecx
	movl	$1, -228(%rbp)
	subq	-200(%rbp), %rcx
	movq	%rcx, -200(%rbp)
	cmpq	$0, -200(%rbp)
	jge	LBB27_39
## %bb.38:
	jmp	LBB27_64
LBB27_39:
	jmp	LBB27_45
LBB27_40:
	cmpq	$0, -200(%rbp)
	jne	LBB27_44
## %bb.41:
	cmpq	$-1000, -208(%rbp)      ## imm = 0xFC18
	jle	LBB27_44
## %bb.42:
	cmpq	$1000, -208(%rbp)       ## imm = 0x3E8
	jge	LBB27_44
## %bb.43:
	movq	-120(%rbp), %rdi
	xorps	%xmm0, %xmm0
	callq	_sqlite3_result_double
	jmp	LBB27_64
LBB27_44:
	jmp	LBB27_45
LBB27_45:
	jmp	LBB27_46
LBB27_46:                               ## =>This Inner Loop Header: Depth=1
	movq	-200(%rbp), %rax
	sarq	$32, %rax
	movl	$4292870144, %ecx       ## imm = 0xFFE00000
	andq	%rcx, %rax
	cmpq	$0, %rax
	je	LBB27_48
## %bb.47:                              ##   in Loop: Header=BB27_46 Depth=1
	movq	-200(%rbp), %rax
	sarq	$1, %rax
	movq	%rax, -200(%rbp)
	movq	-208(%rbp), %rax
	addq	$1, %rax
	movq	%rax, -208(%rbp)
	jmp	LBB27_46
LBB27_48:
	jmp	LBB27_49
LBB27_49:                               ## =>This Inner Loop Header: Depth=1
	xorl	%eax, %eax
                                        ## kill: def $al killed $al killed $eax
	cmpq	$0, -200(%rbp)
	movb	%al, -249(%rbp)         ## 1-byte Spill
	je	LBB27_51
## %bb.50:                              ##   in Loop: Header=BB27_49 Depth=1
	movq	-200(%rbp), %rax
	sarq	$32, %rax
	movl	$4293918720, %ecx       ## imm = 0xFFF00000
	andq	%rcx, %rax
	cmpq	$0, %rax
	sete	%dl
	movb	%dl, -249(%rbp)         ## 1-byte Spill
LBB27_51:                               ##   in Loop: Header=BB27_49 Depth=1
	movb	-249(%rbp), %al         ## 1-byte Reload
	testb	$1, %al
	jne	LBB27_52
	jmp	LBB27_53
LBB27_52:                               ##   in Loop: Header=BB27_49 Depth=1
	movq	-200(%rbp), %rax
	shlq	$1, %rax
	movq	%rax, -200(%rbp)
	movq	-208(%rbp), %rax
	addq	$-1, %rax
	movq	%rax, -208(%rbp)
	jmp	LBB27_49
LBB27_53:
	movq	-208(%rbp), %rax
	addq	$1075, %rax             ## imm = 0x433
	movq	%rax, -208(%rbp)
	cmpq	$0, -208(%rbp)
	jg	LBB27_58
## %bb.54:
	movl	$1, %eax
	subq	-208(%rbp), %rax
	cmpq	$64, %rax
	jl	LBB27_56
## %bb.55:
	movq	$0, -200(%rbp)
	jmp	LBB27_57
LBB27_56:
	movl	$1, %eax
	subq	-208(%rbp), %rax
	movq	-200(%rbp), %rcx
	movq	%rcx, -264(%rbp)        ## 8-byte Spill
	movq	%rax, %rcx
                                        ## kill: def $cl killed $rcx
	movq	-264(%rbp), %rax        ## 8-byte Reload
	sarq	%cl, %rax
	movq	%rax, -200(%rbp)
LBB27_57:
	movq	$0, -208(%rbp)
	jmp	LBB27_61
LBB27_58:
	cmpq	$2047, -208(%rbp)       ## imm = 0x7FF
	jle	LBB27_60
## %bb.59:
	movq	$2047, -208(%rbp)       ## imm = 0x7FF
LBB27_60:
	jmp	LBB27_61
LBB27_61:
	movabsq	$4503599627370495, %rax ## imm = 0xFFFFFFFFFFFFF
	andq	-200(%rbp), %rax
	movq	%rax, -216(%rbp)
	movq	-208(%rbp), %rax
	shlq	$52, %rax
	orq	-216(%rbp), %rax
	movq	%rax, -216(%rbp)
	cmpl	$0, -228(%rbp)
	je	LBB27_63
## %bb.62:
	movabsq	$-9223372036854775808, %rax ## imm = 0x8000000000000000
	orq	-216(%rbp), %rax
	movq	%rax, -216(%rbp)
LBB27_63:
	movq	-216(%rbp), %rax
	movq	%rax, -224(%rbp)
	movq	-120(%rbp), %rdi
	movsd	-224(%rbp), %xmm0       ## xmm0 = mem[0],zero
	callq	_sqlite3_result_double
LBB27_64:
	movq	___stack_chk_guard@GOTPCREL(%rip), %rax
	movq	(%rax), %rax
	movq	-8(%rbp), %rcx
	cmpq	%rcx, %rax
	jne	LBB27_66
## %bb.65:
	addq	$272, %rsp              ## imm = 0x110
	popq	%rbp
	retq
LBB27_66:
	callq	___stack_chk_fail
	ud2
	.cfi_endproc
                                        ## -- End function
	.p2align	4, 0x90         ## -- Begin function ieee754func_to_blob
_ieee754func_to_blob:                   ## @ieee754func_to_blob
	.cfi_startproc
## %bb.0:
	pushq	%rbp
	.cfi_def_cfa_offset 16
	.cfi_offset %rbp, -16
	movq	%rsp, %rbp
	.cfi_def_cfa_register %rbp
	subq	$64, %rsp
	movq	___stack_chk_guard@GOTPCREL(%rip), %rax
	movq	(%rax), %rax
	movq	%rax, -8(%rbp)
	movq	%rdi, -24(%rbp)
	movl	%esi, -28(%rbp)
	movq	%rdx, -40(%rbp)
	movq	-40(%rbp), %rax
	movq	(%rax), %rdi
	callq	_sqlite3_value_type
	cmpl	$2, %eax
	je	LBB28_2
## %bb.1:
	movq	-40(%rbp), %rax
	movq	(%rax), %rdi
	callq	_sqlite3_value_type
	cmpl	$1, %eax
	jne	LBB28_7
LBB28_2:
	movq	-40(%rbp), %rax
	movq	(%rax), %rdi
	callq	_sqlite3_value_double
	movsd	%xmm0, -48(%rbp)
	movq	-48(%rbp), %rax
	movq	%rax, -56(%rbp)
	movl	$1, -60(%rbp)
LBB28_3:                                ## =>This Inner Loop Header: Depth=1
	movl	-60(%rbp), %eax
	movl	%eax, %ecx
	cmpq	$8, %rcx
	ja	LBB28_6
## %bb.4:                               ##   in Loop: Header=BB28_3 Depth=1
	movq	-56(%rbp), %rax
	andq	$255, %rax
                                        ## kill: def $al killed $al killed $rax
	movl	-60(%rbp), %ecx
	movl	%ecx, %edx
	movl	$8, %esi
	subq	%rdx, %rsi
	movb	%al, -16(%rbp,%rsi)
	movq	-56(%rbp), %rdx
	shrq	$8, %rdx
	movq	%rdx, -56(%rbp)
## %bb.5:                               ##   in Loop: Header=BB28_3 Depth=1
	movl	-60(%rbp), %eax
	addl	$1, %eax
	movl	%eax, -60(%rbp)
	jmp	LBB28_3
LBB28_6:
	leaq	-16(%rbp), %rsi
	movq	-24(%rbp), %rdi
	movl	$8, %edx
	movq	$-1, %rcx
	callq	_sqlite3_result_blob
LBB28_7:
	movq	___stack_chk_guard@GOTPCREL(%rip), %rax
	movq	(%rax), %rax
	movq	-8(%rbp), %rcx
	cmpq	%rcx, %rax
	jne	LBB28_9
## %bb.8:
	addq	$64, %rsp
	popq	%rbp
	retq
LBB28_9:
	callq	___stack_chk_fail
	ud2
	.cfi_endproc
                                        ## -- End function
	.p2align	4, 0x90         ## -- Begin function ieee754func_from_blob
_ieee754func_from_blob:                 ## @ieee754func_from_blob
	.cfi_startproc
## %bb.0:
	pushq	%rbp
	.cfi_def_cfa_offset 16
	.cfi_offset %rbp, -16
	movq	%rsp, %rbp
	.cfi_def_cfa_register %rbp
	subq	$64, %rsp
	movq	%rdi, -8(%rbp)
	movl	%esi, -12(%rbp)
	movq	%rdx, -24(%rbp)
	movq	-24(%rbp), %rax
	movq	(%rax), %rdi
	callq	_sqlite3_value_type
	cmpl	$4, %eax
	jne	LBB29_7
## %bb.1:
	movq	-24(%rbp), %rax
	movq	(%rax), %rdi
	callq	_sqlite3_value_bytes
	movslq	%eax, %rcx
	cmpq	$8, %rcx
	jne	LBB29_7
## %bb.2:
	movq	-24(%rbp), %rax
	movq	(%rax), %rdi
	callq	_sqlite3_value_blob
	movq	%rax, -40(%rbp)
	movq	$0, -56(%rbp)
	movl	$0, -44(%rbp)
LBB29_3:                                ## =>This Inner Loop Header: Depth=1
	movl	-44(%rbp), %eax
	movl	%eax, %ecx
	cmpq	$8, %rcx
	jae	LBB29_6
## %bb.4:                               ##   in Loop: Header=BB29_3 Depth=1
	movq	-56(%rbp), %rax
	shlq	$8, %rax
	movq	-40(%rbp), %rcx
	movl	-44(%rbp), %edx
	movl	%edx, %esi
	movzbl	(%rcx,%rsi), %edx
	movl	%edx, %ecx
	orq	%rcx, %rax
	movq	%rax, -56(%rbp)
## %bb.5:                               ##   in Loop: Header=BB29_3 Depth=1
	movl	-44(%rbp), %eax
	addl	$1, %eax
	movl	%eax, -44(%rbp)
	jmp	LBB29_3
LBB29_6:
	movq	-56(%rbp), %rax
	movq	%rax, -32(%rbp)
	movq	-8(%rbp), %rdi
	movsd	-32(%rbp), %xmm0        ## xmm0 = mem[0],zero
	callq	_sqlite3_result_double
LBB29_7:
	addq	$64, %rsp
	popq	%rbp
	retq
	.cfi_endproc
                                        ## -- End function
	.globl	_sqlite3_series_init    ## -- Begin function sqlite3_series_init
	.p2align	4, 0x90
_sqlite3_series_init:                   ## @sqlite3_series_init
	.cfi_startproc
## %bb.0:
	pushq	%rbp
	.cfi_def_cfa_offset 16
	.cfi_offset %rbp, -16
	movq	%rsp, %rbp
	.cfi_def_cfa_register %rbp
	subq	$48, %rsp
	movq	%rdi, -16(%rbp)
	movq	%rsi, -24(%rbp)
	movq	%rdx, -32(%rbp)
	movl	$0, -36(%rbp)
	callq	_sqlite3_libversion_number
	cmpl	$3008012, %eax          ## imm = 0x2DE60C
	jge	LBB30_3
## %bb.1:
	cmpq	$0, -24(%rbp)
	je	LBB30_3
## %bb.2:
	leaq	L_.str.18(%rip), %rdi
	movb	$0, %al
	callq	_sqlite3_mprintf
	movq	-24(%rbp), %rcx
	movq	%rax, (%rcx)
	movl	$1, -4(%rbp)
	jmp	LBB30_4
LBB30_3:
	xorl	%eax, %eax
	movl	%eax, %ecx
	movq	-16(%rbp), %rdi
	leaq	L_.str.19(%rip), %rsi
	leaq	_seriesModule(%rip), %rdx
	callq	_sqlite3_create_module
	movl	%eax, -36(%rbp)
	movl	-36(%rbp), %eax
	movl	%eax, -4(%rbp)
LBB30_4:
	movl	-4(%rbp), %eax
	addq	$48, %rsp
	popq	%rbp
	retq
	.cfi_endproc
                                        ## -- End function
	.globl	_sqlite3_regexp_init    ## -- Begin function sqlite3_regexp_init
	.p2align	4, 0x90
_sqlite3_regexp_init:                   ## @sqlite3_regexp_init
	.cfi_startproc
## %bb.0:
	pushq	%rbp
	.cfi_def_cfa_offset 16
	.cfi_offset %rbp, -16
	movq	%rsp, %rbp
	.cfi_def_cfa_register %rbp
	subq	$64, %rsp
	xorl	%eax, %eax
	movl	%eax, %r8d
	movq	%rdi, -8(%rbp)
	movq	%rsi, -16(%rbp)
	movq	%rdx, -24(%rbp)
	movl	$0, -28(%rbp)
	movq	-8(%rbp), %rdi
	leaq	L_.str.20(%rip), %rsi
	movl	$2, %edx
	movl	$2099201, %ecx          ## imm = 0x200801
	leaq	_re_sql_func(%rip), %r9
	movq	$0, (%rsp)
	movq	$0, 8(%rsp)
	callq	_sqlite3_create_function
	movl	%eax, -28(%rbp)
	cmpl	$0, -28(%rbp)
	jne	LBB31_2
## %bb.1:
	xorl	%eax, %eax
	movl	%eax, %ecx
	movq	-8(%rbp), %rdi
	movq	-8(%rbp), %rdx
	leaq	L_.str.21(%rip), %rsi
	movl	$2, %eax
	movq	%rdx, -40(%rbp)         ## 8-byte Spill
	movl	%eax, %edx
	movl	$2099201, %eax          ## imm = 0x200801
	movq	%rcx, -48(%rbp)         ## 8-byte Spill
	movl	%eax, %ecx
	movq	-40(%rbp), %r8          ## 8-byte Reload
	leaq	_re_sql_func(%rip), %r9
	movq	$0, (%rsp)
	movq	$0, 8(%rsp)
	callq	_sqlite3_create_function
	movl	%eax, -28(%rbp)
LBB31_2:
	movl	-28(%rbp), %eax
	addq	$64, %rsp
	popq	%rbp
	retq
	.cfi_endproc
                                        ## -- End function
	.p2align	4, 0x90         ## -- Begin function re_sql_func
_re_sql_func:                           ## @re_sql_func
	.cfi_startproc
## %bb.0:
	pushq	%rbp
	.cfi_def_cfa_offset 16
	.cfi_offset %rbp, -16
	movq	%rsp, %rbp
	.cfi_def_cfa_register %rbp
	subq	$80, %rsp
	xorl	%eax, %eax
	movq	%rdi, -8(%rbp)
	movl	%esi, -12(%rbp)
	movq	%rdx, -24(%rbp)
	movl	$0, -60(%rbp)
	movq	-8(%rbp), %rdi
	movl	%eax, %esi
	callq	_sqlite3_get_auxdata
	movq	%rax, -32(%rbp)
	cmpq	$0, -32(%rbp)
	jne	LBB32_8
## %bb.1:
	movq	-24(%rbp), %rax
	movq	(%rax), %rdi
	callq	_sqlite3_value_text
	movq	%rax, -40(%rbp)
	cmpq	$0, -40(%rbp)
	jne	LBB32_3
## %bb.2:
	jmp	LBB32_12
LBB32_3:
	movq	-40(%rbp), %rsi
	movq	-8(%rbp), %rdi
	movq	%rsi, -72(%rbp)         ## 8-byte Spill
	callq	_sqlite3_user_data
	cmpq	$0, %rax
	setne	%cl
	andb	$1, %cl
	movzbl	%cl, %edx
	leaq	-32(%rbp), %rdi
	movq	-72(%rbp), %rsi         ## 8-byte Reload
	callq	_sqlite3re_compile
	movq	%rax, -56(%rbp)
	cmpq	$0, -56(%rbp)
	je	LBB32_5
## %bb.4:
	movq	-32(%rbp), %rdi
	callq	_sqlite3re_free
	movq	-8(%rbp), %rdi
	movq	-56(%rbp), %rsi
	movl	$4294967295, %edx       ## imm = 0xFFFFFFFF
	callq	_sqlite3_result_error
	jmp	LBB32_12
LBB32_5:
	cmpq	$0, -32(%rbp)
	jne	LBB32_7
## %bb.6:
	movq	-8(%rbp), %rdi
	callq	_sqlite3_result_error_nomem
	jmp	LBB32_12
LBB32_7:
	movl	$1, -60(%rbp)
LBB32_8:
	movq	-24(%rbp), %rax
	movq	8(%rax), %rdi
	callq	_sqlite3_value_text
	movq	%rax, -48(%rbp)
	cmpq	$0, -48(%rbp)
	je	LBB32_10
## %bb.9:
	movq	-8(%rbp), %rdi
	movq	-32(%rbp), %rax
	movq	-48(%rbp), %rsi
	movq	%rdi, -80(%rbp)         ## 8-byte Spill
	movq	%rax, %rdi
	movl	$4294967295, %edx       ## imm = 0xFFFFFFFF
	callq	_sqlite3re_match
	movq	-80(%rbp), %rdi         ## 8-byte Reload
	movl	%eax, %esi
	callq	_sqlite3_result_int
LBB32_10:
	cmpl	$0, -60(%rbp)
	je	LBB32_12
## %bb.11:
	xorl	%esi, %esi
	leaq	_sqlite3re_free(%rip), %rax
	movq	-8(%rbp), %rdi
	movq	-32(%rbp), %rcx
	movq	%rcx, %rdx
	movq	%rax, %rcx
	callq	_sqlite3_set_auxdata
LBB32_12:
	addq	$80, %rsp
	popq	%rbp
	retq
	.cfi_endproc
                                        ## -- End function
	.globl	_sqlite3_expert_new     ## -- Begin function sqlite3_expert_new
	.p2align	4, 0x90
_sqlite3_expert_new:                    ## @sqlite3_expert_new
	.cfi_startproc
## %bb.0:
	pushq	%rbp
	.cfi_def_cfa_offset 16
	.cfi_offset %rbp, -16
	movq	%rsp, %rbp
	.cfi_def_cfa_register %rbp
	subq	$64, %rsp
	movq	%rdi, -8(%rbp)
	movq	%rsi, -16(%rbp)
	movl	$0, -20(%rbp)
	leaq	-20(%rbp), %rdi
	movl	$8288, %esi             ## imm = 0x2060
	callq	_idxMalloc
	movq	%rax, -32(%rbp)
	cmpl	$0, -20(%rbp)
	jne	LBB33_2
## %bb.1:
	movq	-8(%rbp), %rax
	movq	-32(%rbp), %rcx
	movq	%rax, 8(%rcx)
	movq	-32(%rbp), %rax
	movl	$100, (%rax)
	movq	-32(%rbp), %rax
	addq	$24, %rax
	leaq	L_.str.22(%rip), %rdi
	movq	%rax, %rsi
	callq	_sqlite3_open
	movl	%eax, -20(%rbp)
LBB33_2:
	cmpl	$0, -20(%rbp)
	jne	LBB33_6
## %bb.3:
	movq	-32(%rbp), %rax
	addq	$16, %rax
	leaq	L_.str.22(%rip), %rdi
	movq	%rax, %rsi
	callq	_sqlite3_open
	movl	%eax, -20(%rbp)
	cmpl	$0, -20(%rbp)
	jne	LBB33_5
## %bb.4:
	xorl	%eax, %eax
	movl	%eax, %ecx
	movq	-32(%rbp), %rdx
	movq	16(%rdx), %rdi
	movl	$1008, %esi             ## imm = 0x3F0
	movl	$1, %edx
	movb	$0, %al
	callq	_sqlite3_db_config
LBB33_5:
	jmp	LBB33_6
LBB33_6:
	cmpl	$0, -20(%rbp)
	jne	LBB33_15
## %bb.7:
	movq	$0, -40(%rbp)
	movq	-32(%rbp), %rax
	movq	8(%rax), %rdi
	movq	-16(%rbp), %rdx
	leaq	-40(%rbp), %rsi
	leaq	L_.str.23(%rip), %rcx
	movb	$0, %al
	callq	_idxPrintfPrepareStmt
	movl	%eax, -20(%rbp)
LBB33_8:                                ## =>This Inner Loop Header: Depth=1
	xorl	%eax, %eax
                                        ## kill: def $al killed $al killed $eax
	cmpl	$0, -20(%rbp)
	movb	%al, -49(%rbp)          ## 1-byte Spill
	jne	LBB33_10
## %bb.9:                               ##   in Loop: Header=BB33_8 Depth=1
	movq	-40(%rbp), %rdi
	callq	_sqlite3_step
	movl	$100, %ecx
	cmpl	%eax, %ecx
	sete	%dl
	movb	%dl, -49(%rbp)          ## 1-byte Spill
LBB33_10:                               ##   in Loop: Header=BB33_8 Depth=1
	movb	-49(%rbp), %al          ## 1-byte Reload
	testb	$1, %al
	jne	LBB33_11
	jmp	LBB33_14
LBB33_11:                               ##   in Loop: Header=BB33_8 Depth=1
	xorl	%esi, %esi
	movq	-40(%rbp), %rdi
	callq	_sqlite3_column_text
	movq	%rax, -48(%rbp)
	cmpq	$0, -48(%rbp)
	je	LBB33_13
## %bb.12:                              ##   in Loop: Header=BB33_8 Depth=1
	xorl	%eax, %eax
	movl	%eax, %ecx
	movq	-32(%rbp), %rdx
	movq	16(%rdx), %rdi
	movq	-48(%rbp), %rsi
	movq	-16(%rbp), %r8
	movq	%rcx, %rdx
	callq	_sqlite3_exec
	movl	%eax, -20(%rbp)
LBB33_13:                               ##   in Loop: Header=BB33_8 Depth=1
	jmp	LBB33_8
LBB33_14:
	movq	-40(%rbp), %rsi
	leaq	-20(%rbp), %rdi
	callq	_idxFinalize
LBB33_15:
	cmpl	$0, -20(%rbp)
	jne	LBB33_17
## %bb.16:
	movq	-32(%rbp), %rdi
	movq	-16(%rbp), %rsi
	callq	_idxCreateVtabSchema
	movl	%eax, -20(%rbp)
LBB33_17:
	cmpl	$0, -20(%rbp)
	jne	LBB33_19
## %bb.18:
	movq	-32(%rbp), %rax
	movq	24(%rax), %rdi
	movq	-32(%rbp), %rax
	leaq	_idxAuthCallback(%rip), %rsi
	movq	%rax, %rdx
	callq	_sqlite3_set_authorizer
LBB33_19:
	cmpl	$0, -20(%rbp)
	je	LBB33_21
## %bb.20:
	movq	-32(%rbp), %rdi
	callq	_sqlite3_expert_destroy
	movq	$0, -32(%rbp)
LBB33_21:
	movq	-32(%rbp), %rax
	addq	$64, %rsp
	popq	%rbp
	retq
	.cfi_endproc
                                        ## -- End function
	.p2align	4, 0x90         ## -- Begin function idxMalloc
_idxMalloc:                             ## @idxMalloc
	.cfi_startproc
## %bb.0:
	pushq	%rbp
	.cfi_def_cfa_offset 16
	.cfi_offset %rbp, -16
	movq	%rsp, %rbp
	.cfi_def_cfa_register %rbp
	subq	$32, %rsp
	movq	%rdi, -8(%rbp)
	movl	%esi, -12(%rbp)
	movq	-8(%rbp), %rax
	cmpl	$0, (%rax)
	sete	%cl
	xorb	$-1, %cl
	andb	$1, %cl
	movzbl	%cl, %edx
	movslq	%edx, %rax
	cmpq	$0, %rax
	je	LBB34_2
## %bb.1:
	leaq	L___func__.idxMalloc(%rip), %rdi
	leaq	L_.str.38(%rip), %rsi
	leaq	L_.str.153(%rip), %rcx
	movl	$9384, %edx             ## imm = 0x24A8
	callq	___assert_rtn
LBB34_2:
	jmp	LBB34_3
LBB34_3:
	cmpl	$0, -12(%rbp)
	setg	%al
	xorb	$-1, %al
	andb	$1, %al
	movzbl	%al, %ecx
	movslq	%ecx, %rdx
	cmpq	$0, %rdx
	je	LBB34_5
## %bb.4:
	leaq	L___func__.idxMalloc(%rip), %rdi
	leaq	L_.str.38(%rip), %rsi
	leaq	L_.str.154(%rip), %rcx
	movl	$9385, %edx             ## imm = 0x24A9
	callq	___assert_rtn
LBB34_5:
	jmp	LBB34_6
LBB34_6:
	movl	-12(%rbp), %edi
	callq	_sqlite3_malloc
	movq	%rax, -24(%rbp)
	cmpq	$0, -24(%rbp)
	je	LBB34_8
## %bb.7:
	xorl	%esi, %esi
	movq	$-1, %rcx
	movq	-24(%rbp), %rdi
	movslq	-12(%rbp), %rdx
	callq	___memset_chk
	jmp	LBB34_9
LBB34_8:
	movq	-8(%rbp), %rax
	movl	$7, (%rax)
LBB34_9:
	movq	-24(%rbp), %rax
	addq	$32, %rsp
	popq	%rbp
	retq
	.cfi_endproc
                                        ## -- End function
	.p2align	4, 0x90         ## -- Begin function idxPrintfPrepareStmt
_idxPrintfPrepareStmt:                  ## @idxPrintfPrepareStmt
	.cfi_startproc
## %bb.0:
	pushq	%rbp
	.cfi_def_cfa_offset 16
	.cfi_offset %rbp, -16
	movq	%rsp, %rbp
	.cfi_def_cfa_register %rbp
	subq	$448, %rsp              ## imm = 0x1C0
	testb	%al, %al
	movaps	%xmm7, -272(%rbp)       ## 16-byte Spill
	movaps	%xmm6, -288(%rbp)       ## 16-byte Spill
	movaps	%xmm5, -304(%rbp)       ## 16-byte Spill
	movaps	%xmm4, -320(%rbp)       ## 16-byte Spill
	movaps	%xmm3, -336(%rbp)       ## 16-byte Spill
	movaps	%xmm2, -352(%rbp)       ## 16-byte Spill
	movaps	%xmm1, -368(%rbp)       ## 16-byte Spill
	movaps	%xmm0, -384(%rbp)       ## 16-byte Spill
	movq	%r9, -392(%rbp)         ## 8-byte Spill
	movq	%r8, -400(%rbp)         ## 8-byte Spill
	movq	%rcx, -408(%rbp)        ## 8-byte Spill
	movq	%rdx, -416(%rbp)        ## 8-byte Spill
	movq	%rsi, -424(%rbp)        ## 8-byte Spill
	movq	%rdi, -432(%rbp)        ## 8-byte Spill
	je	LBB35_7
## %bb.6:
	movaps	-384(%rbp), %xmm0       ## 16-byte Reload
	movaps	%xmm0, -208(%rbp)
	movaps	-368(%rbp), %xmm1       ## 16-byte Reload
	movaps	%xmm1, -192(%rbp)
	movaps	-352(%rbp), %xmm2       ## 16-byte Reload
	movaps	%xmm2, -176(%rbp)
	movaps	-336(%rbp), %xmm3       ## 16-byte Reload
	movaps	%xmm3, -160(%rbp)
	movaps	-320(%rbp), %xmm4       ## 16-byte Reload
	movaps	%xmm4, -144(%rbp)
	movaps	-304(%rbp), %xmm5       ## 16-byte Reload
	movaps	%xmm5, -128(%rbp)
	movaps	-288(%rbp), %xmm6       ## 16-byte Reload
	movaps	%xmm6, -112(%rbp)
	movaps	-272(%rbp), %xmm7       ## 16-byte Reload
	movaps	%xmm7, -96(%rbp)
LBB35_7:
	movq	-392(%rbp), %rax        ## 8-byte Reload
	movq	%rax, -216(%rbp)
	movq	-400(%rbp), %rcx        ## 8-byte Reload
	movq	%rcx, -224(%rbp)
	leaq	-32(%rbp), %rdx
	movq	___stack_chk_guard@GOTPCREL(%rip), %rsi
	movq	(%rsi), %rsi
	movq	%rsi, -8(%rbp)
	movq	-432(%rbp), %rsi        ## 8-byte Reload
	movq	%rsi, -40(%rbp)
	movq	-424(%rbp), %rdi        ## 8-byte Reload
	movq	%rdi, -48(%rbp)
	movq	-416(%rbp), %r8         ## 8-byte Reload
	movq	%r8, -56(%rbp)
	movq	-408(%rbp), %r9         ## 8-byte Reload
	movq	%r9, -64(%rbp)
	movq	%rdx, %r10
	leaq	-256(%rbp), %r11
	movq	%r11, 16(%r10)
	leaq	16(%rbp), %r11
	movq	%r11, 8(%r10)
	movl	$48, 4(%r10)
	movl	$32, (%r10)
	movq	-64(%rbp), %rdi
	movq	%rdx, %rsi
	callq	_sqlite3_vmprintf
	movq	%rax, -80(%rbp)
	cmpq	$0, -80(%rbp)
	jne	LBB35_2
## %bb.1:
	movl	$7, -68(%rbp)
	jmp	LBB35_3
LBB35_2:
	movq	-40(%rbp), %rdi
	movq	-48(%rbp), %rsi
	movq	-56(%rbp), %rdx
	movq	-80(%rbp), %rcx
	callq	_idxPrepareStmt
	movl	%eax, -68(%rbp)
	movq	-80(%rbp), %rdi
	callq	_sqlite3_free
LBB35_3:
	leaq	-32(%rbp), %rax
	movl	-68(%rbp), %ecx
	movq	___stack_chk_guard@GOTPCREL(%rip), %rdx
	movq	(%rdx), %rdx
	movq	-8(%rbp), %rsi
	cmpq	%rsi, %rdx
	movl	%ecx, -436(%rbp)        ## 4-byte Spill
	jne	LBB35_5
## %bb.4:
	movl	-436(%rbp), %eax        ## 4-byte Reload
	addq	$448, %rsp              ## imm = 0x1C0
	popq	%rbp
	retq
LBB35_5:
	callq	___stack_chk_fail
	ud2
	.cfi_endproc
                                        ## -- End function
	.p2align	4, 0x90         ## -- Begin function idxFinalize
_idxFinalize:                           ## @idxFinalize
	.cfi_startproc
## %bb.0:
	pushq	%rbp
	.cfi_def_cfa_offset 16
	.cfi_offset %rbp, -16
	movq	%rsp, %rbp
	.cfi_def_cfa_register %rbp
	subq	$32, %rsp
	movq	%rdi, -8(%rbp)
	movq	%rsi, -16(%rbp)
	movq	-16(%rbp), %rdi
	callq	_sqlite3_finalize
	movl	%eax, -20(%rbp)
	movq	-8(%rbp), %rcx
	cmpl	$0, (%rcx)
	jne	LBB36_2
## %bb.1:
	movl	-20(%rbp), %eax
	movq	-8(%rbp), %rcx
	movl	%eax, (%rcx)
LBB36_2:
	addq	$32, %rsp
	popq	%rbp
	retq
	.cfi_endproc
                                        ## -- End function
	.p2align	4, 0x90         ## -- Begin function idxCreateVtabSchema
_idxCreateVtabSchema:                   ## @idxCreateVtabSchema
	.cfi_startproc
## %bb.0:
	pushq	%rbp
	.cfi_def_cfa_offset 16
	.cfi_offset %rbp, -16
	movq	%rsp, %rbp
	.cfi_def_cfa_register %rbp
	subq	$112, %rsp
	movq	%rdi, -8(%rbp)
	movq	%rsi, -16(%rbp)
	movq	-8(%rbp), %rdi
	callq	_idxRegisterVtab
	movl	%eax, -20(%rbp)
	movq	$0, -32(%rbp)
	movq	-8(%rbp), %rcx
	movq	8(%rcx), %rdi
	movq	-16(%rbp), %rdx
	leaq	-32(%rbp), %rsi
	leaq	L_.str.155(%rip), %rcx
	callq	_idxPrepareStmt
	movl	%eax, -20(%rbp)
LBB37_1:                                ## =>This Loop Header: Depth=1
                                        ##     Child Loop BB37_14 Depth 2
	xorl	%eax, %eax
                                        ## kill: def $al killed $al killed $eax
	cmpl	$0, -20(%rbp)
	movb	%al, -89(%rbp)          ## 1-byte Spill
	jne	LBB37_3
## %bb.2:                               ##   in Loop: Header=BB37_1 Depth=1
	movq	-32(%rbp), %rdi
	callq	_sqlite3_step
	movl	$100, %ecx
	cmpl	%eax, %ecx
	sete	%dl
	movb	%dl, -89(%rbp)          ## 1-byte Spill
LBB37_3:                                ##   in Loop: Header=BB37_1 Depth=1
	movb	-89(%rbp), %al          ## 1-byte Reload
	testb	$1, %al
	jne	LBB37_4
	jmp	LBB37_22
LBB37_4:                                ##   in Loop: Header=BB37_1 Depth=1
	xorl	%esi, %esi
	movq	-32(%rbp), %rdi
	callq	_sqlite3_column_text
	movq	%rax, -40(%rbp)
	movq	-32(%rbp), %rdi
	movl	$1, %esi
	callq	_sqlite3_column_text
	movq	%rax, -48(%rbp)
	movq	-32(%rbp), %rdi
	movl	$2, %esi
	callq	_sqlite3_column_text
	movq	%rax, -56(%rbp)
	cmpq	$0, -40(%rbp)
	je	LBB37_6
## %bb.5:                               ##   in Loop: Header=BB37_1 Depth=1
	cmpq	$0, -48(%rbp)
	jne	LBB37_7
LBB37_6:                                ##   in Loop: Header=BB37_1 Depth=1
	jmp	LBB37_1
LBB37_7:                                ##   in Loop: Header=BB37_1 Depth=1
	movq	-40(%rbp), %rax
	movsbl	(%rax), %ecx
	cmpl	$118, %ecx
	je	LBB37_9
## %bb.8:                               ##   in Loop: Header=BB37_1 Depth=1
	movq	-40(%rbp), %rax
	movsbl	1(%rax), %ecx
	cmpl	$114, %ecx
	jne	LBB37_12
LBB37_9:                                ##   in Loop: Header=BB37_1 Depth=1
	cmpq	$0, -56(%rbp)
	je	LBB37_11
## %bb.10:                              ##   in Loop: Header=BB37_1 Depth=1
	xorl	%eax, %eax
	movl	%eax, %ecx
	movq	-8(%rbp), %rdx
	movq	24(%rdx), %rdi
	movq	-56(%rbp), %rsi
	movq	-16(%rbp), %r8
	movq	%rcx, %rdx
	callq	_sqlite3_exec
	movl	%eax, -20(%rbp)
LBB37_11:                               ##   in Loop: Header=BB37_1 Depth=1
	jmp	LBB37_21
LBB37_12:                               ##   in Loop: Header=BB37_1 Depth=1
	movq	-8(%rbp), %rax
	movq	8(%rax), %rdi
	movq	-48(%rbp), %rsi
	movq	-16(%rbp), %rcx
	leaq	-64(%rbp), %rdx
	callq	_idxGetTableInfo
	movl	%eax, -20(%rbp)
	cmpl	$0, -20(%rbp)
	jne	LBB37_20
## %bb.13:                              ##   in Loop: Header=BB37_1 Depth=1
	xorl	%eax, %eax
	movl	%eax, %esi
	movq	$0, -80(%rbp)
	movq	$0, -88(%rbp)
	movq	-8(%rbp), %rcx
	movq	32(%rcx), %rcx
	movq	-64(%rbp), %rdx
	movq	%rcx, 24(%rdx)
	movq	-64(%rbp), %rcx
	movq	-8(%rbp), %rdx
	movq	%rcx, 32(%rdx)
	leaq	-20(%rbp), %rdi
	leaq	L_.str.156(%rip), %rdx
	movb	$0, %al
	callq	_idxAppendText
	movq	%rax, -80(%rbp)
	movl	$0, -68(%rbp)
LBB37_14:                               ##   Parent Loop BB37_1 Depth=1
                                        ## =>  This Inner Loop Header: Depth=2
	movl	-68(%rbp), %eax
	movq	-64(%rbp), %rcx
	cmpl	(%rcx), %eax
	jge	LBB37_17
## %bb.15:                              ##   in Loop: Header=BB37_14 Depth=2
	movq	-80(%rbp), %rsi
	movl	-68(%rbp), %eax
	cmpl	$0, %eax
	leaq	L_.str.27(%rip), %rcx
	leaq	L_.str.158(%rip), %rdx
	cmoveq	%rcx, %rdx
	movq	-64(%rbp), %rcx
	movq	16(%rcx), %rcx
	movslq	-68(%rbp), %rdi
	imulq	$24, %rdi, %rdi
	addq	%rdi, %rcx
	movq	(%rcx), %r8
	movq	-64(%rbp), %rcx
	movq	16(%rcx), %rcx
	movslq	-68(%rbp), %rdi
	imulq	$24, %rdi, %rdi
	addq	%rdi, %rcx
	movq	8(%rcx), %r9
	leaq	-20(%rbp), %rdi
	leaq	L_.str.157(%rip), %rcx
	movq	%rdx, -104(%rbp)        ## 8-byte Spill
	movq	%rcx, %rdx
	movq	-104(%rbp), %rcx        ## 8-byte Reload
	movb	$0, %al
	callq	_idxAppendText
	movq	%rax, -80(%rbp)
## %bb.16:                              ##   in Loop: Header=BB37_14 Depth=2
	movl	-68(%rbp), %eax
	addl	$1, %eax
	movl	%eax, -68(%rbp)
	jmp	LBB37_14
LBB37_17:                               ##   in Loop: Header=BB37_1 Depth=1
	movq	-80(%rbp), %rsi
	leaq	-20(%rbp), %rdi
	leaq	L_.str.159(%rip), %rdx
	movb	$0, %al
	callq	_idxAppendText
	xorl	%ecx, %ecx
	movl	%ecx, %esi
	movq	%rax, -80(%rbp)
	movq	-48(%rbp), %rcx
	movq	-80(%rbp), %r8
	leaq	-20(%rbp), %rdi
	leaq	L_.str.160(%rip), %rdx
	movb	$0, %al
	callq	_idxAppendText
	movq	%rax, -88(%rbp)
	cmpl	$0, -20(%rbp)
	jne	LBB37_19
## %bb.18:                              ##   in Loop: Header=BB37_1 Depth=1
	xorl	%eax, %eax
	movl	%eax, %ecx
	movq	-8(%rbp), %rdx
	movq	24(%rdx), %rdi
	movq	-88(%rbp), %rsi
	movq	-16(%rbp), %r8
	movq	%rcx, %rdx
	callq	_sqlite3_exec
	movl	%eax, -20(%rbp)
LBB37_19:                               ##   in Loop: Header=BB37_1 Depth=1
	movq	-80(%rbp), %rdi
	callq	_sqlite3_free
	movq	-88(%rbp), %rdi
	callq	_sqlite3_free
LBB37_20:                               ##   in Loop: Header=BB37_1 Depth=1
	jmp	LBB37_21
LBB37_21:                               ##   in Loop: Header=BB37_1 Depth=1
	jmp	LBB37_1
LBB37_22:
	movq	-32(%rbp), %rsi
	leaq	-20(%rbp), %rdi
	callq	_idxFinalize
	movl	-20(%rbp), %eax
	addq	$112, %rsp
	popq	%rbp
	retq
	.cfi_endproc
                                        ## -- End function
	.p2align	4, 0x90         ## -- Begin function idxAuthCallback
_idxAuthCallback:                       ## @idxAuthCallback
	.cfi_startproc
## %bb.0:
	pushq	%rbp
	.cfi_def_cfa_offset 16
	.cfi_offset %rbp, -16
	movq	%rsp, %rbp
	.cfi_def_cfa_register %rbp
	subq	$80, %rsp
	movq	%rdi, -8(%rbp)
	movl	%esi, -12(%rbp)
	movq	%rdx, -24(%rbp)
	movq	%rcx, -32(%rbp)
	movq	%r8, -40(%rbp)
	movq	%r9, -48(%rbp)
	movl	$0, -52(%rbp)
	cmpl	$18, -12(%rbp)
	je	LBB38_3
## %bb.1:
	cmpl	$23, -12(%rbp)
	je	LBB38_3
## %bb.2:
	cmpl	$9, -12(%rbp)
	jne	LBB38_25
LBB38_3:
	movq	-40(%rbp), %rdi
	leaq	L___func__.main(%rip), %rsi
	callq	_sqlite3_stricmp
	cmpl	$0, %eax
	jne	LBB38_24
## %bb.4:
	movq	-8(%rbp), %rax
	movq	%rax, -64(%rbp)
	movq	-64(%rbp), %rax
	movq	32(%rax), %rax
	movq	%rax, -72(%rbp)
LBB38_5:                                ## =>This Inner Loop Header: Depth=1
	cmpq	$0, -72(%rbp)
	je	LBB38_10
## %bb.6:                               ##   in Loop: Header=BB38_5 Depth=1
	movq	-24(%rbp), %rdi
	movq	-72(%rbp), %rax
	movq	8(%rax), %rsi
	callq	_sqlite3_stricmp
	xorl	%ecx, %ecx
	cmpl	%eax, %ecx
	jne	LBB38_8
## %bb.7:
	jmp	LBB38_10
LBB38_8:                                ##   in Loop: Header=BB38_5 Depth=1
	jmp	LBB38_9
LBB38_9:                                ##   in Loop: Header=BB38_5 Depth=1
	movq	-72(%rbp), %rax
	movq	24(%rax), %rax
	movq	%rax, -72(%rbp)
	jmp	LBB38_5
LBB38_10:
	cmpq	$0, -72(%rbp)
	je	LBB38_23
## %bb.11:
	movq	-64(%rbp), %rax
	movq	48(%rax), %rax
	movq	%rax, -80(%rbp)
LBB38_12:                               ## =>This Inner Loop Header: Depth=1
	cmpq	$0, -80(%rbp)
	je	LBB38_18
## %bb.13:                              ##   in Loop: Header=BB38_12 Depth=1
	movq	-80(%rbp), %rax
	movq	(%rax), %rax
	cmpq	-72(%rbp), %rax
	jne	LBB38_16
## %bb.14:                              ##   in Loop: Header=BB38_12 Depth=1
	movq	-80(%rbp), %rax
	movl	8(%rax), %ecx
	cmpl	-12(%rbp), %ecx
	jne	LBB38_16
## %bb.15:
	jmp	LBB38_18
LBB38_16:                               ##   in Loop: Header=BB38_12 Depth=1
	jmp	LBB38_17
LBB38_17:                               ##   in Loop: Header=BB38_12 Depth=1
	movq	-80(%rbp), %rax
	movq	16(%rax), %rax
	movq	%rax, -80(%rbp)
	jmp	LBB38_12
LBB38_18:
	cmpq	$0, -80(%rbp)
	jne	LBB38_22
## %bb.19:
	leaq	-52(%rbp), %rdi
	movl	$24, %esi
	callq	_idxMalloc
	movq	%rax, -80(%rbp)
	cmpl	$0, -52(%rbp)
	jne	LBB38_21
## %bb.20:
	movq	-72(%rbp), %rax
	movq	-80(%rbp), %rcx
	movq	%rax, (%rcx)
	movl	-12(%rbp), %edx
	movq	-80(%rbp), %rax
	movl	%edx, 8(%rax)
	movq	-64(%rbp), %rax
	movq	48(%rax), %rax
	movq	-80(%rbp), %rcx
	movq	%rax, 16(%rcx)
	movq	-80(%rbp), %rax
	movq	-64(%rbp), %rcx
	movq	%rax, 48(%rcx)
LBB38_21:
	jmp	LBB38_22
LBB38_22:
	jmp	LBB38_23
LBB38_23:
	jmp	LBB38_24
LBB38_24:
	jmp	LBB38_25
LBB38_25:
	movl	-52(%rbp), %eax
	addq	$80, %rsp
	popq	%rbp
	retq
	.cfi_endproc
                                        ## -- End function
	.globl	_sqlite3_expert_destroy ## -- Begin function sqlite3_expert_destroy
	.p2align	4, 0x90
_sqlite3_expert_destroy:                ## @sqlite3_expert_destroy
	.cfi_startproc
## %bb.0:
	pushq	%rbp
	.cfi_def_cfa_offset 16
	.cfi_offset %rbp, -16
	movq	%rsp, %rbp
	.cfi_def_cfa_register %rbp
	subq	$16, %rsp
	movq	%rdi, -8(%rbp)
	cmpq	$0, -8(%rbp)
	je	LBB39_2
## %bb.1:
	movq	-8(%rbp), %rax
	movq	16(%rax), %rdi
	callq	_sqlite3_close
	movq	-8(%rbp), %rcx
	movq	24(%rcx), %rdi
	movl	%eax, -12(%rbp)         ## 4-byte Spill
	callq	_sqlite3_close
	xorl	%edx, %edx
	movl	%edx, %esi
	movq	-8(%rbp), %rcx
	movq	40(%rcx), %rdi
	movl	%eax, -16(%rbp)         ## 4-byte Spill
	callq	_idxScanFree
	xorl	%eax, %eax
	movl	%eax, %esi
	movq	-8(%rbp), %rcx
	movq	56(%rcx), %rdi
	callq	_idxStatementFree
	movq	-8(%rbp), %rcx
	movq	32(%rcx), %rdi
	callq	_idxTableFree
	movq	-8(%rbp), %rcx
	movq	48(%rcx), %rdi
	callq	_idxWriteFree
	movq	-8(%rbp), %rcx
	addq	$88, %rcx
	movq	%rcx, %rdi
	callq	_idxHashClear
	movq	-8(%rbp), %rcx
	movq	8280(%rcx), %rdi
	callq	_sqlite3_free
	movq	-8(%rbp), %rcx
	movq	%rcx, %rdi
	callq	_sqlite3_free
LBB39_2:
	addq	$16, %rsp
	popq	%rbp
	retq
	.cfi_endproc
                                        ## -- End function
	.globl	_sqlite3_expert_config  ## -- Begin function sqlite3_expert_config
	.p2align	4, 0x90
_sqlite3_expert_config:                 ## @sqlite3_expert_config
	.cfi_startproc
## %bb.0:
	pushq	%rbp
	.cfi_def_cfa_offset 16
	.cfi_offset %rbp, -16
	movq	%rsp, %rbp
	.cfi_def_cfa_register %rbp
	subq	$448, %rsp              ## imm = 0x1C0
	testb	%al, %al
	movaps	%xmm7, -256(%rbp)       ## 16-byte Spill
	movaps	%xmm6, -272(%rbp)       ## 16-byte Spill
	movaps	%xmm5, -288(%rbp)       ## 16-byte Spill
	movaps	%xmm4, -304(%rbp)       ## 16-byte Spill
	movaps	%xmm3, -320(%rbp)       ## 16-byte Spill
	movaps	%xmm2, -336(%rbp)       ## 16-byte Spill
	movaps	%xmm1, -352(%rbp)       ## 16-byte Spill
	movaps	%xmm0, -368(%rbp)       ## 16-byte Spill
	movq	%r9, -376(%rbp)         ## 8-byte Spill
	movq	%r8, -384(%rbp)         ## 8-byte Spill
	movq	%rcx, -392(%rbp)        ## 8-byte Spill
	movq	%rdx, -400(%rbp)        ## 8-byte Spill
	movl	%esi, -404(%rbp)        ## 4-byte Spill
	movq	%rdi, -416(%rbp)        ## 8-byte Spill
	je	LBB40_14
## %bb.13:
	movaps	-368(%rbp), %xmm0       ## 16-byte Reload
	movaps	%xmm0, -192(%rbp)
	movaps	-352(%rbp), %xmm1       ## 16-byte Reload
	movaps	%xmm1, -176(%rbp)
	movaps	-336(%rbp), %xmm2       ## 16-byte Reload
	movaps	%xmm2, -160(%rbp)
	movaps	-320(%rbp), %xmm3       ## 16-byte Reload
	movaps	%xmm3, -144(%rbp)
	movaps	-304(%rbp), %xmm4       ## 16-byte Reload
	movaps	%xmm4, -128(%rbp)
	movaps	-288(%rbp), %xmm5       ## 16-byte Reload
	movaps	%xmm5, -112(%rbp)
	movaps	-272(%rbp), %xmm6       ## 16-byte Reload
	movaps	%xmm6, -96(%rbp)
	movaps	-256(%rbp), %xmm7       ## 16-byte Reload
	movaps	%xmm7, -80(%rbp)
LBB40_14:
	movq	-376(%rbp), %rax        ## 8-byte Reload
	movq	%rax, -200(%rbp)
	movq	-384(%rbp), %rcx        ## 8-byte Reload
	movq	%rcx, -208(%rbp)
	movq	-392(%rbp), %rdx        ## 8-byte Reload
	movq	%rdx, -216(%rbp)
	movq	-400(%rbp), %rsi        ## 8-byte Reload
	movq	%rsi, -224(%rbp)
	movq	___stack_chk_guard@GOTPCREL(%rip), %rdi
	movq	(%rdi), %rdi
	movq	%rdi, -8(%rbp)
	movq	-416(%rbp), %rdi        ## 8-byte Reload
	movq	%rdi, -40(%rbp)
	movl	-404(%rbp), %r8d        ## 4-byte Reload
	movl	%r8d, -44(%rbp)
	movl	$0, -48(%rbp)
	leaq	-240(%rbp), %r9
	movq	%r9, -16(%rbp)
	leaq	16(%rbp), %r9
	movq	%r9, -24(%rbp)
	movl	$48, -28(%rbp)
	movl	$16, -32(%rbp)
	movl	-44(%rbp), %r10d
	subl	$1, %r10d
	jne	LBB40_9
	jmp	LBB40_1
LBB40_1:
	leaq	-32(%rbp), %rax
	movl	-32(%rbp), %ecx
	cmpl	$40, %ecx
	movq	%rax, -424(%rbp)        ## 8-byte Spill
	movl	%ecx, -428(%rbp)        ## 4-byte Spill
	ja	LBB40_3
## %bb.2:
	movl	-428(%rbp), %eax        ## 4-byte Reload
	movslq	%eax, %rcx
	movq	-424(%rbp), %rdx        ## 8-byte Reload
	addq	16(%rdx), %rcx
	addl	$8, %eax
	movl	%eax, (%rdx)
	movq	%rcx, -440(%rbp)        ## 8-byte Spill
	jmp	LBB40_4
LBB40_3:
	movq	-424(%rbp), %rax        ## 8-byte Reload
	movq	8(%rax), %rcx
	movq	%rcx, %rdx
	addq	$8, %rcx
	movq	%rcx, 8(%rax)
	movq	%rdx, -440(%rbp)        ## 8-byte Spill
LBB40_4:
	movq	-440(%rbp), %rax        ## 8-byte Reload
	movl	(%rax), %ecx
	movl	%ecx, -52(%rbp)
	cmpl	$0, -52(%rbp)
	jge	LBB40_6
## %bb.5:
	movl	$0, -52(%rbp)
LBB40_6:
	cmpl	$100, -52(%rbp)
	jle	LBB40_8
## %bb.7:
	movl	$100, -52(%rbp)
LBB40_8:
	movl	-52(%rbp), %eax
	movq	-40(%rbp), %rcx
	movl	%eax, (%rcx)
	jmp	LBB40_10
LBB40_9:
	movl	$12, -48(%rbp)
LBB40_10:
	leaq	-32(%rbp), %rax
	movl	-48(%rbp), %ecx
	movq	___stack_chk_guard@GOTPCREL(%rip), %rdx
	movq	(%rdx), %rdx
	movq	-8(%rbp), %rsi
	cmpq	%rsi, %rdx
	movl	%ecx, -444(%rbp)        ## 4-byte Spill
	jne	LBB40_12
## %bb.11:
	movl	-444(%rbp), %eax        ## 4-byte Reload
	addq	$448, %rsp              ## imm = 0x1C0
	popq	%rbp
	retq
LBB40_12:
	callq	___stack_chk_fail
	ud2
	.cfi_endproc
                                        ## -- End function
	.globl	_sqlite3_expert_sql     ## -- Begin function sqlite3_expert_sql
	.p2align	4, 0x90
_sqlite3_expert_sql:                    ## @sqlite3_expert_sql
	.cfi_startproc
## %bb.0:
	pushq	%rbp
	.cfi_def_cfa_offset 16
	.cfi_offset %rbp, -16
	movq	%rsp, %rbp
	.cfi_def_cfa_register %rbp
	subq	$96, %rsp
	movq	%rdi, -16(%rbp)
	movq	%rsi, -24(%rbp)
	movq	%rdx, -32(%rbp)
	movq	-16(%rbp), %rax
	movq	40(%rax), %rax
	movq	%rax, -40(%rbp)
	movq	-16(%rbp), %rax
	movq	56(%rax), %rax
	movq	%rax, -48(%rbp)
	movl	$0, -52(%rbp)
	movq	-24(%rbp), %rax
	movq	%rax, -64(%rbp)
	movq	-16(%rbp), %rax
	cmpl	$0, 64(%rax)
	je	LBB41_2
## %bb.1:
	movl	$21, -4(%rbp)
	jmp	LBB41_20
LBB41_2:
	jmp	LBB41_3
LBB41_3:                                ## =>This Inner Loop Header: Depth=1
	xorl	%eax, %eax
                                        ## kill: def $al killed $al killed $eax
	cmpl	$0, -52(%rbp)
	movb	%al, -93(%rbp)          ## 1-byte Spill
	jne	LBB41_6
## %bb.4:                               ##   in Loop: Header=BB41_3 Depth=1
	xorl	%eax, %eax
                                        ## kill: def $al killed $al killed $eax
	cmpq	$0, -64(%rbp)
	movb	%al, -93(%rbp)          ## 1-byte Spill
	je	LBB41_6
## %bb.5:                               ##   in Loop: Header=BB41_3 Depth=1
	movq	-64(%rbp), %rax
	movsbl	(%rax), %ecx
	cmpl	$0, %ecx
	setne	%dl
	movb	%dl, -93(%rbp)          ## 1-byte Spill
LBB41_6:                                ##   in Loop: Header=BB41_3 Depth=1
	movb	-93(%rbp), %al          ## 1-byte Reload
	testb	$1, %al
	jne	LBB41_7
	jmp	LBB41_17
LBB41_7:                                ##   in Loop: Header=BB41_3 Depth=1
	movq	$0, -72(%rbp)
	movq	-16(%rbp), %rax
	movq	24(%rax), %rdi
	movq	-64(%rbp), %rsi
	movl	$4294967295, %edx       ## imm = 0xFFFFFFFF
	leaq	-72(%rbp), %rcx
	leaq	-64(%rbp), %r8
	callq	_sqlite3_prepare_v2
	movl	%eax, -52(%rbp)
	cmpl	$0, -52(%rbp)
	jne	LBB41_15
## %bb.8:                               ##   in Loop: Header=BB41_3 Depth=1
	cmpq	$0, -72(%rbp)
	je	LBB41_14
## %bb.9:                               ##   in Loop: Header=BB41_3 Depth=1
	movq	-72(%rbp), %rdi
	callq	_sqlite3_sql
	movq	%rax, -88(%rbp)
	movq	-88(%rbp), %rdi
	callq	_strlen
                                        ## kill: def $eax killed $eax killed $rax
	movl	%eax, -92(%rbp)
	movslq	-92(%rbp), %rcx
	addq	$40, %rcx
	addq	$1, %rcx
                                        ## kill: def $ecx killed $ecx killed $rcx
	leaq	-52(%rbp), %rdi
	movl	%ecx, %esi
	callq	_idxMalloc
	movq	%rax, -80(%rbp)
	cmpl	$0, -52(%rbp)
	jne	LBB41_13
## %bb.10:                              ##   in Loop: Header=BB41_3 Depth=1
	movq	$-1, %rcx
	movq	-80(%rbp), %rax
	addq	$40, %rax
	movq	-80(%rbp), %rdx
	movq	%rax, 8(%rdx)
	movq	-80(%rbp), %rax
	movq	8(%rax), %rdi
	movq	-88(%rbp), %rsi
	movl	-92(%rbp), %r8d
	addl	$1, %r8d
	movslq	%r8d, %rdx
	callq	___memcpy_chk
	movq	-16(%rbp), %rcx
	movq	56(%rcx), %rcx
	movq	-80(%rbp), %rdx
	movq	%rcx, 32(%rdx)
	movq	-16(%rbp), %rcx
	cmpq	$0, 56(%rcx)
	je	LBB41_12
## %bb.11:                              ##   in Loop: Header=BB41_3 Depth=1
	movq	-16(%rbp), %rax
	movq	56(%rax), %rax
	movl	(%rax), %ecx
	addl	$1, %ecx
	movq	-80(%rbp), %rax
	movl	%ecx, (%rax)
LBB41_12:                               ##   in Loop: Header=BB41_3 Depth=1
	movq	-80(%rbp), %rax
	movq	-16(%rbp), %rcx
	movq	%rax, 56(%rcx)
LBB41_13:                               ##   in Loop: Header=BB41_3 Depth=1
	movq	-72(%rbp), %rdi
	callq	_sqlite3_finalize
LBB41_14:                               ##   in Loop: Header=BB41_3 Depth=1
	jmp	LBB41_16
LBB41_15:                               ##   in Loop: Header=BB41_3 Depth=1
	movq	-16(%rbp), %rax
	movq	24(%rax), %rdi
	movq	-32(%rbp), %rsi
	callq	_idxDatabaseError
LBB41_16:                               ##   in Loop: Header=BB41_3 Depth=1
	jmp	LBB41_3
LBB41_17:
	cmpl	$0, -52(%rbp)
	je	LBB41_19
## %bb.18:
	movq	-16(%rbp), %rax
	movq	40(%rax), %rdi
	movq	-40(%rbp), %rsi
	callq	_idxScanFree
	movq	-16(%rbp), %rax
	movq	56(%rax), %rdi
	movq	-48(%rbp), %rsi
	callq	_idxStatementFree
	movq	-40(%rbp), %rax
	movq	-16(%rbp), %rcx
	movq	%rax, 40(%rcx)
	movq	-48(%rbp), %rax
	movq	-16(%rbp), %rcx
	movq	%rax, 56(%rcx)
LBB41_19:
	movl	-52(%rbp), %eax
	movl	%eax, -4(%rbp)
LBB41_20:
	movl	-4(%rbp), %eax
	addq	$96, %rsp
	popq	%rbp
	retq
	.cfi_endproc
                                        ## -- End function
	.p2align	4, 0x90         ## -- Begin function idxDatabaseError
_idxDatabaseError:                      ## @idxDatabaseError
	.cfi_startproc
## %bb.0:
	pushq	%rbp
	.cfi_def_cfa_offset 16
	.cfi_offset %rbp, -16
	movq	%rsp, %rbp
	.cfi_def_cfa_register %rbp
	subq	$16, %rsp
	movq	%rdi, -8(%rbp)
	movq	%rsi, -16(%rbp)
	movq	-8(%rbp), %rdi
	callq	_sqlite3_errmsg
	leaq	L_.str.79(%rip), %rdi
	movq	%rax, %rsi
	movb	$0, %al
	callq	_sqlite3_mprintf
	movq	-16(%rbp), %rcx
	movq	%rax, (%rcx)
	addq	$16, %rsp
	popq	%rbp
	retq
	.cfi_endproc
                                        ## -- End function
	.p2align	4, 0x90         ## -- Begin function idxScanFree
_idxScanFree:                           ## @idxScanFree
	.cfi_startproc
## %bb.0:
	pushq	%rbp
	.cfi_def_cfa_offset 16
	.cfi_offset %rbp, -16
	movq	%rsp, %rbp
	.cfi_def_cfa_register %rbp
	subq	$32, %rsp
	movq	%rdi, -8(%rbp)
	movq	%rsi, -16(%rbp)
	movq	-8(%rbp), %rax
	movq	%rax, -24(%rbp)
LBB43_1:                                ## =>This Inner Loop Header: Depth=1
	movq	-24(%rbp), %rax
	cmpq	-16(%rbp), %rax
	je	LBB43_4
## %bb.2:                               ##   in Loop: Header=BB43_1 Depth=1
	movq	-24(%rbp), %rax
	movq	48(%rax), %rax
	movq	%rax, -32(%rbp)
	movq	-24(%rbp), %rax
	movq	24(%rax), %rdi
	callq	_idxConstraintFree
	movq	-24(%rbp), %rax
	movq	32(%rax), %rdi
	callq	_idxConstraintFree
	movq	-24(%rbp), %rax
	movq	40(%rax), %rdi
	callq	_idxConstraintFree
	movq	-24(%rbp), %rax
	movq	%rax, %rdi
	callq	_sqlite3_free
## %bb.3:                               ##   in Loop: Header=BB43_1 Depth=1
	movq	-32(%rbp), %rax
	movq	%rax, -24(%rbp)
	jmp	LBB43_1
LBB43_4:
	addq	$32, %rsp
	popq	%rbp
	retq
	.cfi_endproc
                                        ## -- End function
	.p2align	4, 0x90         ## -- Begin function idxStatementFree
_idxStatementFree:                      ## @idxStatementFree
	.cfi_startproc
## %bb.0:
	pushq	%rbp
	.cfi_def_cfa_offset 16
	.cfi_offset %rbp, -16
	movq	%rsp, %rbp
	.cfi_def_cfa_register %rbp
	subq	$32, %rsp
	movq	%rdi, -8(%rbp)
	movq	%rsi, -16(%rbp)
	movq	-8(%rbp), %rax
	movq	%rax, -24(%rbp)
LBB44_1:                                ## =>This Inner Loop Header: Depth=1
	movq	-24(%rbp), %rax
	cmpq	-16(%rbp), %rax
	je	LBB44_4
## %bb.2:                               ##   in Loop: Header=BB44_1 Depth=1
	movq	-24(%rbp), %rax
	movq	32(%rax), %rax
	movq	%rax, -32(%rbp)
	movq	-24(%rbp), %rax
	movq	24(%rax), %rdi
	callq	_sqlite3_free
	movq	-24(%rbp), %rax
	movq	16(%rax), %rdi
	callq	_sqlite3_free
	movq	-24(%rbp), %rax
	movq	%rax, %rdi
	callq	_sqlite3_free
## %bb.3:                               ##   in Loop: Header=BB44_1 Depth=1
	movq	-32(%rbp), %rax
	movq	%rax, -24(%rbp)
	jmp	LBB44_1
LBB44_4:
	addq	$32, %rsp
	popq	%rbp
	retq
	.cfi_endproc
                                        ## -- End function
	.globl	_sqlite3_expert_analyze ## -- Begin function sqlite3_expert_analyze
	.p2align	4, 0x90
_sqlite3_expert_analyze:                ## @sqlite3_expert_analyze
	.cfi_startproc
## %bb.0:
	pushq	%rbp
	.cfi_def_cfa_offset 16
	.cfi_offset %rbp, -16
	movq	%rsp, %rbp
	.cfi_def_cfa_register %rbp
	subq	$48, %rsp
	movq	%rdi, -16(%rbp)
	movq	%rsi, -24(%rbp)
	movq	-16(%rbp), %rdi
	movq	-24(%rbp), %rsi
	callq	_idxProcessTriggers
	movl	%eax, -28(%rbp)
	cmpl	$0, -28(%rbp)
	jne	LBB45_2
## %bb.1:
	movq	-16(%rbp), %rdi
	callq	_idxCreateCandidates
	movl	%eax, -28(%rbp)
	jmp	LBB45_7
LBB45_2:
	cmpl	$773, -28(%rbp)         ## imm = 0x305
	jne	LBB45_6
## %bb.3:
	cmpq	$0, -24(%rbp)
	je	LBB45_5
## %bb.4:
	leaq	L_.str.24(%rip), %rdi
	movb	$0, %al
	callq	_sqlite3_mprintf
	movq	-24(%rbp), %rcx
	movq	%rax, (%rcx)
LBB45_5:
	movl	-28(%rbp), %eax
	movl	%eax, -4(%rbp)
	jmp	LBB45_18
LBB45_6:
	jmp	LBB45_7
LBB45_7:
	cmpl	$0, -28(%rbp)
	jne	LBB45_9
## %bb.8:
	movq	-16(%rbp), %rdi
	movq	-24(%rbp), %rsi
	callq	_idxPopulateStat1
	movl	%eax, -28(%rbp)
LBB45_9:
	movq	-16(%rbp), %rax
	movq	88(%rax), %rax
	movq	%rax, -40(%rbp)
LBB45_10:                               ## =>This Inner Loop Header: Depth=1
	cmpq	$0, -40(%rbp)
	je	LBB45_13
## %bb.11:                              ##   in Loop: Header=BB45_10 Depth=1
	movq	-16(%rbp), %rax
	movq	8280(%rax), %rsi
	movq	-40(%rbp), %rax
	movq	8(%rax), %rcx
	movq	-40(%rbp), %rax
	movq	16(%rax), %rax
	cmpq	$0, %rax
	leaq	L_.str.26(%rip), %rax
	leaq	L_.str.27(%rip), %rdx
	cmovneq	%rax, %rdx
	movq	-40(%rbp), %rax
	movq	16(%rax), %r9
	leaq	-28(%rbp), %rdi
	leaq	L_.str.25(%rip), %rax
	movq	%rdx, -48(%rbp)         ## 8-byte Spill
	movq	%rax, %rdx
	movq	-48(%rbp), %r8          ## 8-byte Reload
	movb	$0, %al
	callq	_idxAppendText
	movq	-16(%rbp), %rcx
	movq	%rax, 8280(%rcx)
## %bb.12:                              ##   in Loop: Header=BB45_10 Depth=1
	movq	-40(%rbp), %rax
	movq	32(%rax), %rax
	movq	%rax, -40(%rbp)
	jmp	LBB45_10
LBB45_13:
	cmpl	$0, -28(%rbp)
	jne	LBB45_15
## %bb.14:
	movq	-16(%rbp), %rdi
	movq	-24(%rbp), %rsi
	callq	_idxFindIndexes
	movl	%eax, -28(%rbp)
LBB45_15:
	cmpl	$0, -28(%rbp)
	jne	LBB45_17
## %bb.16:
	movq	-16(%rbp), %rax
	movl	$1, 64(%rax)
LBB45_17:
	movl	-28(%rbp), %eax
	movl	%eax, -4(%rbp)
LBB45_18:
	movl	-4(%rbp), %eax
	addq	$48, %rsp
	popq	%rbp
	retq
	.cfi_endproc
                                        ## -- End function
	.p2align	4, 0x90         ## -- Begin function idxProcessTriggers
_idxProcessTriggers:                    ## @idxProcessTriggers
	.cfi_startproc
## %bb.0:
	pushq	%rbp
	.cfi_def_cfa_offset 16
	.cfi_offset %rbp, -16
	movq	%rsp, %rbp
	.cfi_def_cfa_register %rbp
	subq	$64, %rsp
	movq	%rdi, -8(%rbp)
	movq	%rsi, -16(%rbp)
	movl	$0, -20(%rbp)
	movq	$0, -32(%rbp)
	movq	-8(%rbp), %rax
	movq	48(%rax), %rax
	movq	%rax, -40(%rbp)
LBB46_1:                                ## =>This Loop Header: Depth=1
                                        ##     Child Loop BB46_5 Depth 2
	xorl	%eax, %eax
                                        ## kill: def $al killed $al killed $eax
	cmpl	$0, -20(%rbp)
	movb	%al, -49(%rbp)          ## 1-byte Spill
	jne	LBB46_3
## %bb.2:                               ##   in Loop: Header=BB46_1 Depth=1
	movq	-40(%rbp), %rax
	cmpq	-32(%rbp), %rax
	setne	%cl
	movb	%cl, -49(%rbp)          ## 1-byte Spill
LBB46_3:                                ##   in Loop: Header=BB46_1 Depth=1
	movb	-49(%rbp), %al          ## 1-byte Reload
	testb	$1, %al
	jne	LBB46_4
	jmp	LBB46_11
LBB46_4:                                ##   in Loop: Header=BB46_1 Depth=1
	movq	-40(%rbp), %rax
	movq	%rax, -48(%rbp)
LBB46_5:                                ##   Parent Loop BB46_1 Depth=1
                                        ## =>  This Inner Loop Header: Depth=2
	xorl	%eax, %eax
                                        ## kill: def $al killed $al killed $eax
	cmpl	$0, -20(%rbp)
	movb	%al, -50(%rbp)          ## 1-byte Spill
	jne	LBB46_7
## %bb.6:                               ##   in Loop: Header=BB46_5 Depth=2
	movq	-48(%rbp), %rax
	cmpq	-32(%rbp), %rax
	setne	%cl
	movb	%cl, -50(%rbp)          ## 1-byte Spill
LBB46_7:                                ##   in Loop: Header=BB46_5 Depth=2
	movb	-50(%rbp), %al          ## 1-byte Reload
	testb	$1, %al
	jne	LBB46_8
	jmp	LBB46_10
LBB46_8:                                ##   in Loop: Header=BB46_5 Depth=2
	movq	-8(%rbp), %rdi
	movq	-48(%rbp), %rsi
	movq	-16(%rbp), %rdx
	callq	_idxProcessOneTrigger
	movl	%eax, -20(%rbp)
## %bb.9:                               ##   in Loop: Header=BB46_5 Depth=2
	movq	-48(%rbp), %rax
	movq	16(%rax), %rax
	movq	%rax, -48(%rbp)
	jmp	LBB46_5
LBB46_10:                               ##   in Loop: Header=BB46_1 Depth=1
	movq	-40(%rbp), %rax
	movq	%rax, -32(%rbp)
	movq	-8(%rbp), %rax
	movq	48(%rax), %rax
	movq	%rax, -40(%rbp)
	jmp	LBB46_1
LBB46_11:
	movl	-20(%rbp), %eax
	addq	$64, %rsp
	popq	%rbp
	retq
	.cfi_endproc
                                        ## -- End function
	.p2align	4, 0x90         ## -- Begin function idxCreateCandidates
_idxCreateCandidates:                   ## @idxCreateCandidates
	.cfi_startproc
## %bb.0:
	pushq	%rbp
	.cfi_def_cfa_offset 16
	.cfi_offset %rbp, -16
	movq	%rsp, %rbp
	.cfi_def_cfa_register %rbp
	subq	$32, %rsp
	movq	%rdi, -8(%rbp)
	movl	$0, -12(%rbp)
	movq	-8(%rbp), %rax
	movq	40(%rax), %rax
	movq	%rax, -24(%rbp)
LBB47_1:                                ## =>This Inner Loop Header: Depth=1
	xorl	%eax, %eax
                                        ## kill: def $al killed $al killed $eax
	cmpq	$0, -24(%rbp)
	movb	%al, -25(%rbp)          ## 1-byte Spill
	je	LBB47_3
## %bb.2:                               ##   in Loop: Header=BB47_1 Depth=1
	cmpl	$0, -12(%rbp)
	sete	%al
	movb	%al, -25(%rbp)          ## 1-byte Spill
LBB47_3:                                ##   in Loop: Header=BB47_1 Depth=1
	movb	-25(%rbp), %al          ## 1-byte Reload
	testb	$1, %al
	jne	LBB47_4
	jmp	LBB47_9
LBB47_4:                                ##   in Loop: Header=BB47_1 Depth=1
	xorl	%eax, %eax
	movl	%eax, %edx
	movq	-8(%rbp), %rdi
	movq	-24(%rbp), %rsi
	callq	_idxCreateFromWhere
	movl	%eax, -12(%rbp)
	cmpl	$0, -12(%rbp)
	jne	LBB47_7
## %bb.5:                               ##   in Loop: Header=BB47_1 Depth=1
	movq	-24(%rbp), %rax
	cmpq	$0, 24(%rax)
	je	LBB47_7
## %bb.6:                               ##   in Loop: Header=BB47_1 Depth=1
	movq	-8(%rbp), %rdi
	movq	-24(%rbp), %rsi
	movq	-24(%rbp), %rax
	movq	24(%rax), %rdx
	callq	_idxCreateFromWhere
	movl	%eax, -12(%rbp)
LBB47_7:                                ##   in Loop: Header=BB47_1 Depth=1
	jmp	LBB47_8
LBB47_8:                                ##   in Loop: Header=BB47_1 Depth=1
	movq	-24(%rbp), %rax
	movq	48(%rax), %rax
	movq	%rax, -24(%rbp)
	jmp	LBB47_1
LBB47_9:
	movl	-12(%rbp), %eax
	addq	$32, %rsp
	popq	%rbp
	retq
	.cfi_endproc
                                        ## -- End function
	.section	__TEXT,__literal8,8byte_literals
	.p2align	3               ## -- Begin function idxPopulateStat1
LCPI48_0:
	.quad	4636737291354636288     ## double 100
	.section	__TEXT,__text,regular,pure_instructions
	.p2align	4, 0x90
_idxPopulateStat1:                      ## @idxPopulateStat1
	.cfi_startproc
## %bb.0:
	pushq	%rbp
	.cfi_def_cfa_offset 16
	.cfi_offset %rbp, -16
	movq	%rsp, %rbp
	.cfi_def_cfa_register %rbp
	subq	$272, %rsp              ## imm = 0x110
	movq	%rdi, -16(%rbp)
	movq	%rsi, -24(%rbp)
	movl	$0, -28(%rbp)
	movl	$0, -32(%rbp)
	movq	$0, -40(%rbp)
	movq	$-100000, -88(%rbp)     ## imm = 0xFFFE7960
	movq	$0, -96(%rbp)
	movq	$0, -104(%rbp)
	movq	$0, -112(%rbp)
	leaq	L_.str.195(%rip), %rax
	movq	%rax, -120(%rbp)
	leaq	L_.str.196(%rip), %rax
	movq	%rax, -128(%rbp)
	leaq	L_.str.197(%rip), %rax
	movq	%rax, -136(%rbp)
	movq	-16(%rbp), %rax
	cmpl	$0, (%rax)
	jne	LBB48_2
## %bb.1:
	movl	$0, -4(%rbp)
	jmp	LBB48_45
LBB48_2:
	movq	-16(%rbp), %rax
	movq	16(%rax), %rdi
	movq	-24(%rbp), %rdx
	leaq	-32(%rbp), %rsi
	callq	_idxLargestIndex
	movl	%eax, -28(%rbp)
	cmpl	$0, -32(%rbp)
	jle	LBB48_4
## %bb.3:
	cmpl	$0, -28(%rbp)
	je	LBB48_5
LBB48_4:
	movl	-28(%rbp), %eax
	movl	%eax, -4(%rbp)
	jmp	LBB48_45
LBB48_5:
	xorl	%eax, %eax
	movl	%eax, %ecx
	movq	-16(%rbp), %rdx
	movq	16(%rdx), %rdi
	leaq	L_.str.198(%rip), %rsi
	movq	%rcx, %rdx
	movq	%rcx, -184(%rbp)        ## 8-byte Spill
	movq	-184(%rbp), %r8         ## 8-byte Reload
	callq	_sqlite3_exec
	movl	%eax, -28(%rbp)
	cmpl	$0, -28(%rbp)
	jne	LBB48_7
## %bb.6:
	movslq	-32(%rbp), %rax
	imulq	$40, %rax, %rax
	addq	$48, %rax
                                        ## kill: def $eax killed $eax killed $rax
	movl	%eax, -140(%rbp)
	movl	-140(%rbp), %esi
	leaq	-28(%rbp), %rdi
	callq	_idxMalloc
	movq	%rax, -40(%rbp)
LBB48_7:
	cmpl	$0, -28(%rbp)
	jne	LBB48_12
## %bb.8:
	movq	-16(%rbp), %rax
	cmpl	$100, (%rax)
	jne	LBB48_10
## %bb.9:
	movq	-16(%rbp), %rax
	movq	8(%rax), %rax
	movq	%rax, -192(%rbp)        ## 8-byte Spill
	jmp	LBB48_11
LBB48_10:
	movq	-16(%rbp), %rax
	movq	24(%rax), %rax
	movq	%rax, -192(%rbp)        ## 8-byte Spill
LBB48_11:
	movq	-192(%rbp), %rax        ## 8-byte Reload
	xorl	%ecx, %ecx
	movl	%ecx, %edx
	movq	%rax, -152(%rbp)
	movq	-152(%rbp), %rdi
	movq	-40(%rbp), %rax
	leaq	L_.str.199(%rip), %rsi
	movl	$2, %ecx
	movq	%rdx, -200(%rbp)        ## 8-byte Spill
	movl	%ecx, %edx
	movl	$1, %ecx
	movq	%rax, %r8
	leaq	_idxRemFunc(%rip), %r9
	movq	$0, (%rsp)
	movq	$0, 8(%rsp)
	callq	_sqlite3_create_function
	movl	%eax, -28(%rbp)
LBB48_12:
	cmpl	$0, -28(%rbp)
	jne	LBB48_14
## %bb.13:
	xorl	%edx, %edx
	xorl	%eax, %eax
	movl	%eax, %ecx
	movq	-16(%rbp), %rsi
	movq	8(%rsi), %rdi
	leaq	-72(%rbp), %rsi
	leaq	L_.str.200(%rip), %r8
	movq	%rsi, -208(%rbp)        ## 8-byte Spill
	movq	%r8, %rsi
	movl	$1, %eax
	movq	%rcx, -216(%rbp)        ## 8-byte Spill
	movl	%eax, %ecx
	movq	-208(%rbp), %r8         ## 8-byte Reload
	leaq	_idxSampleFunc(%rip), %r9
	movq	$0, (%rsp)
	movq	$0, 8(%rsp)
	callq	_sqlite3_create_function
	movl	%eax, -28(%rbp)
LBB48_14:
	cmpl	$0, -28(%rbp)
	jne	LBB48_16
## %bb.15:
	movl	-32(%rbp), %eax
	addl	$1, %eax
	movq	-40(%rbp), %rcx
	movl	%eax, (%rcx)
	movq	-16(%rbp), %rcx
	movq	16(%rcx), %rdi
	movq	-24(%rbp), %rdx
	movq	-120(%rbp), %rcx
	leaq	-96(%rbp), %rsi
	callq	_idxPrepareStmt
	movl	%eax, -28(%rbp)
LBB48_16:
	cmpl	$0, -28(%rbp)
	jne	LBB48_18
## %bb.17:
	movq	-16(%rbp), %rax
	movq	16(%rax), %rdi
	movq	-24(%rbp), %rdx
	movq	-128(%rbp), %rcx
	leaq	-104(%rbp), %rsi
	callq	_idxPrepareStmt
	movl	%eax, -28(%rbp)
LBB48_18:
	cmpl	$0, -28(%rbp)
	jne	LBB48_20
## %bb.19:
	movq	-16(%rbp), %rax
	movq	16(%rax), %rdi
	movq	-24(%rbp), %rdx
	movq	-136(%rbp), %rcx
	leaq	-112(%rbp), %rsi
	callq	_idxPrepareStmt
	movl	%eax, -28(%rbp)
LBB48_20:
	jmp	LBB48_21
LBB48_21:                               ## =>This Inner Loop Header: Depth=1
	xorl	%eax, %eax
                                        ## kill: def $al killed $al killed $eax
	cmpl	$0, -28(%rbp)
	movb	%al, -217(%rbp)         ## 1-byte Spill
	jne	LBB48_23
## %bb.22:                              ##   in Loop: Header=BB48_21 Depth=1
	movq	-96(%rbp), %rdi
	callq	_sqlite3_step
	movl	$100, %ecx
	cmpl	%eax, %ecx
	sete	%dl
	movb	%dl, -217(%rbp)         ## 1-byte Spill
LBB48_23:                               ##   in Loop: Header=BB48_21 Depth=1
	movb	-217(%rbp), %al         ## 1-byte Reload
	testb	$1, %al
	jne	LBB48_24
	jmp	LBB48_33
LBB48_24:                               ##   in Loop: Header=BB48_21 Depth=1
	xorl	%esi, %esi
	movq	-96(%rbp), %rdi
	callq	_sqlite3_column_int64
	movq	%rax, -160(%rbp)
	movq	-96(%rbp), %rdi
	movl	$1, %esi
	callq	_sqlite3_column_text
	movq	%rax, -168(%rbp)
	movq	-96(%rbp), %rdi
	movl	$2, %esi
	callq	_sqlite3_column_text
	movq	%rax, -176(%rbp)
	cmpq	$0, -168(%rbp)
	je	LBB48_26
## %bb.25:                              ##   in Loop: Header=BB48_21 Depth=1
	cmpq	$0, -176(%rbp)
	jne	LBB48_27
LBB48_26:                               ##   in Loop: Header=BB48_21 Depth=1
	jmp	LBB48_21
LBB48_27:                               ##   in Loop: Header=BB48_21 Depth=1
	movq	-16(%rbp), %rax
	cmpl	$100, (%rax)
	jge	LBB48_32
## %bb.28:                              ##   in Loop: Header=BB48_21 Depth=1
	movq	-88(%rbp), %rax
	cmpq	-160(%rbp), %rax
	je	LBB48_32
## %bb.29:                              ##   in Loop: Header=BB48_21 Depth=1
	movsd	LCPI48_0(%rip), %xmm0   ## xmm0 = mem[0],zero
	movq	-16(%rbp), %rax
	cvtsi2sdl	(%rax), %xmm1
	divsd	%xmm0, %xmm1
	movsd	%xmm1, -64(%rbp)
	movq	-16(%rbp), %rax
	movl	(%rax), %ecx
	movl	%ecx, -72(%rbp)
	xorps	%xmm0, %xmm0
	movsd	%xmm0, -56(%rbp)
	movsd	%xmm0, -48(%rbp)
	movq	-16(%rbp), %rdi
	movq	-168(%rbp), %rsi
	callq	_idxBuildSampleTable
	movl	%eax, -28(%rbp)
	cmpl	$0, -28(%rbp)
	je	LBB48_31
## %bb.30:
	jmp	LBB48_33
LBB48_31:                               ##   in Loop: Header=BB48_21 Depth=1
	jmp	LBB48_32
LBB48_32:                               ##   in Loop: Header=BB48_21 Depth=1
	movq	-16(%rbp), %rdi
	movq	-104(%rbp), %rsi
	movq	-112(%rbp), %rdx
	movq	-168(%rbp), %rcx
	movq	-176(%rbp), %r8
	movq	-24(%rbp), %r9
	callq	_idxPopulateOneStat1
	movl	%eax, -28(%rbp)
	movq	-160(%rbp), %rcx
	movq	%rcx, -88(%rbp)
	jmp	LBB48_21
LBB48_33:
	cmpl	$0, -28(%rbp)
	jne	LBB48_36
## %bb.34:
	movq	-16(%rbp), %rax
	cmpl	$100, (%rax)
	jge	LBB48_36
## %bb.35:
	xorl	%eax, %eax
	movl	%eax, %ecx
	movq	-16(%rbp), %rdx
	movq	24(%rdx), %rdi
	leaq	L_.str.201(%rip), %rsi
	movq	%rcx, %rdx
	movq	%rcx, -232(%rbp)        ## 8-byte Spill
	movq	-232(%rbp), %r8         ## 8-byte Reload
	callq	_sqlite3_exec
	movl	%eax, -28(%rbp)
LBB48_36:
	movq	-96(%rbp), %rsi
	leaq	-28(%rbp), %rdi
	callq	_idxFinalize
	movq	-104(%rbp), %rsi
	leaq	-28(%rbp), %rdi
	callq	_idxFinalize
	movq	-112(%rbp), %rsi
	leaq	-28(%rbp), %rdi
	callq	_idxFinalize
	cmpq	$0, -40(%rbp)
	je	LBB48_42
## %bb.37:
	movl	$0, -76(%rbp)
LBB48_38:                               ## =>This Inner Loop Header: Depth=1
	movl	-76(%rbp), %eax
	movq	-40(%rbp), %rcx
	cmpl	(%rcx), %eax
	jge	LBB48_41
## %bb.39:                              ##   in Loop: Header=BB48_38 Depth=1
	movq	-40(%rbp), %rax
	addq	$8, %rax
	movslq	-76(%rbp), %rcx
	imulq	$40, %rcx, %rcx
	addq	%rcx, %rax
	movq	32(%rax), %rdi
	callq	_sqlite3_free
## %bb.40:                              ##   in Loop: Header=BB48_38 Depth=1
	movl	-76(%rbp), %eax
	addl	$1, %eax
	movl	%eax, -76(%rbp)
	jmp	LBB48_38
LBB48_41:
	movq	-40(%rbp), %rax
	movq	%rax, %rdi
	callq	_sqlite3_free
LBB48_42:
	cmpl	$0, -28(%rbp)
	jne	LBB48_44
## %bb.43:
	xorl	%eax, %eax
	movl	%eax, %ecx
	movq	-16(%rbp), %rdx
	movq	16(%rdx), %rdi
	leaq	L_.str.202(%rip), %rsi
	movq	%rcx, %rdx
	movq	%rcx, -240(%rbp)        ## 8-byte Spill
	movq	-240(%rbp), %r8         ## 8-byte Reload
	callq	_sqlite3_exec
	movl	%eax, -28(%rbp)
LBB48_44:
	xorl	%eax, %eax
	movl	%eax, %ecx
	movq	-16(%rbp), %rdx
	movq	8(%rdx), %rdi
	leaq	L_.str.201(%rip), %rsi
	movq	%rcx, %rdx
	movq	%rcx, -248(%rbp)        ## 8-byte Spill
	movq	-248(%rbp), %r8         ## 8-byte Reload
	callq	_sqlite3_exec
	movl	-28(%rbp), %r9d
	movl	%r9d, -4(%rbp)
LBB48_45:
	movl	-4(%rbp), %eax
	addq	$272, %rsp              ## imm = 0x110
	popq	%rbp
	retq
	.cfi_endproc
                                        ## -- End function
	.p2align	4, 0x90         ## -- Begin function idxAppendText
_idxAppendText:                         ## @idxAppendText
	.cfi_startproc
## %bb.0:
	pushq	%rbp
	.cfi_def_cfa_offset 16
	.cfi_offset %rbp, -16
	movq	%rsp, %rbp
	.cfi_def_cfa_register %rbp
	subq	$448, %rsp              ## imm = 0x1C0
	testb	%al, %al
	movaps	%xmm7, -272(%rbp)       ## 16-byte Spill
	movaps	%xmm6, -288(%rbp)       ## 16-byte Spill
	movaps	%xmm5, -304(%rbp)       ## 16-byte Spill
	movaps	%xmm4, -320(%rbp)       ## 16-byte Spill
	movaps	%xmm3, -336(%rbp)       ## 16-byte Spill
	movaps	%xmm2, -352(%rbp)       ## 16-byte Spill
	movaps	%xmm1, -368(%rbp)       ## 16-byte Spill
	movaps	%xmm0, -384(%rbp)       ## 16-byte Spill
	movq	%r9, -392(%rbp)         ## 8-byte Spill
	movq	%r8, -400(%rbp)         ## 8-byte Spill
	movq	%rcx, -408(%rbp)        ## 8-byte Spill
	movq	%rdx, -416(%rbp)        ## 8-byte Spill
	movq	%rsi, -424(%rbp)        ## 8-byte Spill
	movq	%rdi, -432(%rbp)        ## 8-byte Spill
	je	LBB49_17
## %bb.16:
	movaps	-384(%rbp), %xmm0       ## 16-byte Reload
	movaps	%xmm0, -208(%rbp)
	movaps	-368(%rbp), %xmm1       ## 16-byte Reload
	movaps	%xmm1, -192(%rbp)
	movaps	-352(%rbp), %xmm2       ## 16-byte Reload
	movaps	%xmm2, -176(%rbp)
	movaps	-336(%rbp), %xmm3       ## 16-byte Reload
	movaps	%xmm3, -160(%rbp)
	movaps	-320(%rbp), %xmm4       ## 16-byte Reload
	movaps	%xmm4, -144(%rbp)
	movaps	-304(%rbp), %xmm5       ## 16-byte Reload
	movaps	%xmm5, -128(%rbp)
	movaps	-288(%rbp), %xmm6       ## 16-byte Reload
	movaps	%xmm6, -112(%rbp)
	movaps	-272(%rbp), %xmm7       ## 16-byte Reload
	movaps	%xmm7, -96(%rbp)
LBB49_17:
	movq	-392(%rbp), %rax        ## 8-byte Reload
	movq	%rax, -216(%rbp)
	movq	-400(%rbp), %rcx        ## 8-byte Reload
	movq	%rcx, -224(%rbp)
	movq	-408(%rbp), %rdx        ## 8-byte Reload
	movq	%rdx, -232(%rbp)
	movq	___stack_chk_guard@GOTPCREL(%rip), %rsi
	movq	(%rsi), %rsi
	movq	%rsi, -8(%rbp)
	movq	-432(%rbp), %rsi        ## 8-byte Reload
	movq	%rsi, -40(%rbp)
	movq	-424(%rbp), %rdi        ## 8-byte Reload
	movq	%rdi, -48(%rbp)
	movq	-416(%rbp), %r8         ## 8-byte Reload
	movq	%r8, -56(%rbp)
	movq	$0, -64(%rbp)
	movq	$0, -72(%rbp)
	cmpq	$0, -48(%rbp)
	je	LBB49_2
## %bb.1:
	movq	-48(%rbp), %rdi
	callq	_strlen
                                        ## kill: def $eax killed $eax killed $rax
	movl	%eax, -436(%rbp)        ## 4-byte Spill
	jmp	LBB49_3
LBB49_2:
	xorl	%eax, %eax
	movl	%eax, -436(%rbp)        ## 4-byte Spill
	jmp	LBB49_3
LBB49_3:
	movl	-436(%rbp), %eax        ## 4-byte Reload
	leaq	-32(%rbp), %rcx
	movl	%eax, -76(%rbp)
	movl	$0, -80(%rbp)
	leaq	-256(%rbp), %rdx
	movq	%rdx, 16(%rcx)
	leaq	16(%rbp), %rdx
	movq	%rdx, 8(%rcx)
	movl	$48, 4(%rcx)
	movl	$24, (%rcx)
	movq	-40(%rbp), %rcx
	cmpl	$0, (%rcx)
	jne	LBB49_13
## %bb.4:
	leaq	-32(%rbp), %rsi
	movq	-56(%rbp), %rdi
	callq	_sqlite3_vmprintf
	movq	%rax, -64(%rbp)
	cmpq	$0, -64(%rbp)
	je	LBB49_6
## %bb.5:
	movq	-64(%rbp), %rdi
	callq	_strlen
                                        ## kill: def $eax killed $eax killed $rax
	movl	%eax, -80(%rbp)
	movl	-76(%rbp), %eax
	addl	-80(%rbp), %eax
	addl	$1, %eax
	movl	%eax, %edi
	callq	_sqlite3_malloc
	movq	%rax, -72(%rbp)
LBB49_6:
	cmpq	$0, -64(%rbp)
	je	LBB49_11
## %bb.7:
	cmpq	$0, -72(%rbp)
	je	LBB49_11
## %bb.8:
	cmpl	$0, -76(%rbp)
	je	LBB49_10
## %bb.9:
	movq	$-1, %rcx
	movq	-72(%rbp), %rdi
	movq	-48(%rbp), %rsi
	movslq	-76(%rbp), %rdx
	callq	___memcpy_chk
LBB49_10:
	movq	$-1, %rcx
	movq	-72(%rbp), %rax
	movslq	-76(%rbp), %rdx
	addq	%rdx, %rax
	movq	-64(%rbp), %rsi
	movl	-80(%rbp), %edi
	addl	$1, %edi
	movslq	%edi, %rdx
	movq	%rax, %rdi
	callq	___memcpy_chk
	jmp	LBB49_12
LBB49_11:
	movq	-72(%rbp), %rdi
	callq	_sqlite3_free
	movq	$0, -72(%rbp)
	movq	-40(%rbp), %rax
	movl	$7, (%rax)
LBB49_12:
	movq	-64(%rbp), %rdi
	callq	_sqlite3_free
	movq	-48(%rbp), %rdi
	callq	_sqlite3_free
LBB49_13:
	leaq	-32(%rbp), %rax
	movq	-72(%rbp), %rcx
	movq	___stack_chk_guard@GOTPCREL(%rip), %rdx
	movq	(%rdx), %rdx
	movq	-8(%rbp), %rsi
	cmpq	%rsi, %rdx
	movq	%rcx, -448(%rbp)        ## 8-byte Spill
	jne	LBB49_15
## %bb.14:
	movq	-448(%rbp), %rax        ## 8-byte Reload
	addq	$448, %rsp              ## imm = 0x1C0
	popq	%rbp
	retq
LBB49_15:
	callq	___stack_chk_fail
	ud2
	.cfi_endproc
                                        ## -- End function
	.p2align	4, 0x90         ## -- Begin function idxFindIndexes
_idxFindIndexes:                        ## @idxFindIndexes
	.cfi_startproc
## %bb.0:
	pushq	%rbp
	.cfi_def_cfa_offset 16
	.cfi_offset %rbp, -16
	movq	%rsp, %rbp
	.cfi_def_cfa_register %rbp
	movl	$8288, %eax             ## imm = 0x2060
	callq	____chkstk_darwin
	subq	%rax, %rsp
	movq	%rdi, -8(%rbp)
	movq	%rsi, -16(%rbp)
	movq	-8(%rbp), %rax
	movq	16(%rax), %rax
	movq	%rax, -32(%rbp)
	movl	$0, -36(%rbp)
	leaq	-8232(%rbp), %rdi
	callq	_idxHashInit
	movq	-8(%rbp), %rax
	movq	56(%rax), %rax
	movq	%rax, -24(%rbp)
LBB50_1:                                ## =>This Loop Header: Depth=1
                                        ##     Child Loop BB50_5 Depth 2
                                        ##       Child Loop BB50_11 Depth 3
                                        ##       Child Loop BB50_21 Depth 3
                                        ##     Child Loop BB50_38 Depth 2
	xorl	%eax, %eax
                                        ## kill: def $al killed $al killed $eax
	cmpl	$0, -36(%rbp)
	movb	%al, -8285(%rbp)        ## 1-byte Spill
	jne	LBB50_3
## %bb.2:                               ##   in Loop: Header=BB50_1 Depth=1
	cmpq	$0, -24(%rbp)
	setne	%al
	movb	%al, -8285(%rbp)        ## 1-byte Spill
LBB50_3:                                ##   in Loop: Header=BB50_1 Depth=1
	movb	-8285(%rbp), %al        ## 1-byte Reload
	testb	$1, %al
	jne	LBB50_4
	jmp	LBB50_43
LBB50_4:                                ##   in Loop: Header=BB50_1 Depth=1
	movq	$0, -8248(%rbp)
	leaq	-8232(%rbp), %rdi
	callq	_idxHashClear
	movq	-32(%rbp), %rdi
	movq	-16(%rbp), %rdx
	movq	-24(%rbp), %rax
	movq	8(%rax), %r8
	leaq	-8248(%rbp), %rsi
	leaq	L_.str.216(%rip), %rcx
	movb	$0, %al
	callq	_idxPrintfPrepareStmt
	movl	%eax, -36(%rbp)
LBB50_5:                                ##   Parent Loop BB50_1 Depth=1
                                        ## =>  This Loop Header: Depth=2
                                        ##       Child Loop BB50_11 Depth 3
                                        ##       Child Loop BB50_21 Depth 3
	xorl	%eax, %eax
                                        ## kill: def $al killed $al killed $eax
	cmpl	$0, -36(%rbp)
	movb	%al, -8286(%rbp)        ## 1-byte Spill
	jne	LBB50_7
## %bb.6:                               ##   in Loop: Header=BB50_5 Depth=2
	movq	-8248(%rbp), %rdi
	callq	_sqlite3_step
	cmpl	$100, %eax
	sete	%cl
	movb	%cl, -8286(%rbp)        ## 1-byte Spill
LBB50_7:                                ##   in Loop: Header=BB50_5 Depth=2
	movb	-8286(%rbp), %al        ## 1-byte Reload
	testb	$1, %al
	jne	LBB50_8
	jmp	LBB50_37
LBB50_8:                                ##   in Loop: Header=BB50_5 Depth=2
	movq	-8248(%rbp), %rdi
	movl	$3, %esi
	callq	_sqlite3_column_text
	movq	%rax, -8256(%rbp)
	cmpq	$0, -8256(%rbp)
	jne	LBB50_10
## %bb.9:                               ##   in Loop: Header=BB50_5 Depth=2
	jmp	LBB50_5
LBB50_10:                               ##   in Loop: Header=BB50_5 Depth=2
	movq	-8256(%rbp), %rdi
	callq	_strlen
                                        ## kill: def $eax killed $eax killed $rax
	movl	%eax, -8260(%rbp)
	movl	$0, -8264(%rbp)
LBB50_11:                               ##   Parent Loop BB50_1 Depth=1
                                        ##     Parent Loop BB50_5 Depth=2
                                        ## =>    This Inner Loop Header: Depth=3
	movl	-8264(%rbp), %eax
	cmpl	-8260(%rbp), %eax
	jge	LBB50_34
## %bb.12:                              ##   in Loop: Header=BB50_11 Depth=3
	movq	$0, -8272(%rbp)
	movl	-8264(%rbp), %eax
	addl	$13, %eax
	cmpl	-8260(%rbp), %eax
	jge	LBB50_15
## %bb.13:                              ##   in Loop: Header=BB50_11 Depth=3
	movq	-8256(%rbp), %rax
	movslq	-8264(%rbp), %rcx
	addq	%rcx, %rax
	leaq	L_.str.217(%rip), %rsi
	movl	$13, %edx
	movq	%rax, %rdi
	callq	_memcmp
	cmpl	$0, %eax
	jne	LBB50_15
## %bb.14:                              ##   in Loop: Header=BB50_11 Depth=3
	movq	-8256(%rbp), %rax
	movl	-8264(%rbp), %ecx
	addl	$13, %ecx
	movslq	%ecx, %rdx
	addq	%rdx, %rax
	movq	%rax, -8272(%rbp)
	jmp	LBB50_19
LBB50_15:                               ##   in Loop: Header=BB50_11 Depth=3
	movl	-8264(%rbp), %eax
	addl	$22, %eax
	cmpl	-8260(%rbp), %eax
	jge	LBB50_18
## %bb.16:                              ##   in Loop: Header=BB50_11 Depth=3
	movq	-8256(%rbp), %rax
	movslq	-8264(%rbp), %rcx
	addq	%rcx, %rax
	leaq	L_.str.218(%rip), %rsi
	movl	$22, %edx
	movq	%rax, %rdi
	callq	_memcmp
	cmpl	$0, %eax
	jne	LBB50_18
## %bb.17:                              ##   in Loop: Header=BB50_11 Depth=3
	movq	-8256(%rbp), %rax
	movl	-8264(%rbp), %ecx
	addl	$22, %ecx
	movslq	%ecx, %rdx
	addq	%rdx, %rax
	movq	%rax, -8272(%rbp)
LBB50_18:                               ##   in Loop: Header=BB50_11 Depth=3
	jmp	LBB50_19
LBB50_19:                               ##   in Loop: Header=BB50_11 Depth=3
	cmpq	$0, -8272(%rbp)
	je	LBB50_32
## %bb.20:                              ##   in Loop: Header=BB50_5 Depth=2
	movl	$0, -8284(%rbp)
LBB50_21:                               ##   Parent Loop BB50_1 Depth=1
                                        ##     Parent Loop BB50_5 Depth=2
                                        ## =>    This Inner Loop Header: Depth=3
	xorl	%eax, %eax
                                        ## kill: def $al killed $al killed $eax
	movq	-8272(%rbp), %rcx
	movslq	-8284(%rbp), %rdx
	movsbl	(%rcx,%rdx), %esi
	cmpl	$0, %esi
	movb	%al, -8287(%rbp)        ## 1-byte Spill
	je	LBB50_25
## %bb.22:                              ##   in Loop: Header=BB50_21 Depth=3
	movq	-8272(%rbp), %rax
	movslq	-8284(%rbp), %rcx
	movsbl	(%rax,%rcx), %edx
	cmpl	$32, %edx
	movb	$1, %sil
	movb	%sil, -8288(%rbp)       ## 1-byte Spill
	jne	LBB50_24
## %bb.23:                              ##   in Loop: Header=BB50_21 Depth=3
	movq	-8272(%rbp), %rax
	movl	-8284(%rbp), %ecx
	addl	$1, %ecx
	movslq	%ecx, %rdx
	movsbl	(%rax,%rdx), %ecx
	cmpl	$40, %ecx
	setne	%sil
	movb	%sil, -8288(%rbp)       ## 1-byte Spill
LBB50_24:                               ##   in Loop: Header=BB50_21 Depth=3
	movb	-8288(%rbp), %al        ## 1-byte Reload
	movb	%al, -8287(%rbp)        ## 1-byte Spill
LBB50_25:                               ##   in Loop: Header=BB50_21 Depth=3
	movb	-8287(%rbp), %al        ## 1-byte Reload
	testb	$1, %al
	jne	LBB50_26
	jmp	LBB50_27
LBB50_26:                               ##   in Loop: Header=BB50_21 Depth=3
	movl	-8284(%rbp), %eax
	addl	$1, %eax
	movl	%eax, -8284(%rbp)
	jmp	LBB50_21
LBB50_27:                               ##   in Loop: Header=BB50_5 Depth=2
	movq	-8(%rbp), %rax
	addq	$88, %rax
	movq	-8272(%rbp), %rsi
	movl	-8284(%rbp), %edx
	movq	%rax, %rdi
	callq	_idxHashSearch
	movq	%rax, -8280(%rbp)
	cmpq	$0, -8280(%rbp)
	je	LBB50_31
## %bb.28:                              ##   in Loop: Header=BB50_5 Depth=2
	xorl	%eax, %eax
	movl	%eax, %ecx
	movq	-8280(%rbp), %rdx
	leaq	-36(%rbp), %rdi
	leaq	-8232(%rbp), %rsi
	callq	_idxHashAdd
	cmpl	$0, -36(%rbp)
	je	LBB50_30
## %bb.29:
	jmp	LBB50_44
LBB50_30:                               ##   in Loop: Header=BB50_5 Depth=2
	jmp	LBB50_31
LBB50_31:                               ##   in Loop: Header=BB50_5 Depth=2
	jmp	LBB50_34
LBB50_32:                               ##   in Loop: Header=BB50_11 Depth=3
	jmp	LBB50_33
LBB50_33:                               ##   in Loop: Header=BB50_11 Depth=3
	movl	-8264(%rbp), %eax
	addl	$1, %eax
	movl	%eax, -8264(%rbp)
	jmp	LBB50_11
LBB50_34:                               ##   in Loop: Header=BB50_5 Depth=2
	movq	-8256(%rbp), %rax
	movsbl	(%rax), %ecx
	cmpl	$45, %ecx
	je	LBB50_36
## %bb.35:                              ##   in Loop: Header=BB50_5 Depth=2
	movq	-24(%rbp), %rax
	movq	24(%rax), %rsi
	movq	-8256(%rbp), %rcx
	leaq	-36(%rbp), %rdi
	leaq	L_.str.219(%rip), %rdx
	movb	$0, %al
	callq	_idxAppendText
	movq	-24(%rbp), %rcx
	movq	%rax, 24(%rcx)
LBB50_36:                               ##   in Loop: Header=BB50_5 Depth=2
	jmp	LBB50_5
LBB50_37:                               ##   in Loop: Header=BB50_1 Depth=1
	movq	-8232(%rbp), %rax
	movq	%rax, -8240(%rbp)
LBB50_38:                               ##   Parent Loop BB50_1 Depth=1
                                        ## =>  This Inner Loop Header: Depth=2
	cmpq	$0, -8240(%rbp)
	je	LBB50_41
## %bb.39:                              ##   in Loop: Header=BB50_38 Depth=2
	movq	-24(%rbp), %rax
	movq	16(%rax), %rsi
	movq	-8240(%rbp), %rax
	movq	(%rax), %rcx
	leaq	-36(%rbp), %rdi
	leaq	L_.str.220(%rip), %rdx
	movb	$0, %al
	callq	_idxAppendText
	movq	-24(%rbp), %rcx
	movq	%rax, 16(%rcx)
## %bb.40:                              ##   in Loop: Header=BB50_38 Depth=2
	movq	-8240(%rbp), %rax
	movq	32(%rax), %rax
	movq	%rax, -8240(%rbp)
	jmp	LBB50_38
LBB50_41:                               ##   in Loop: Header=BB50_1 Depth=1
	movq	-8248(%rbp), %rsi
	leaq	-36(%rbp), %rdi
	callq	_idxFinalize
## %bb.42:                              ##   in Loop: Header=BB50_1 Depth=1
	movq	-24(%rbp), %rax
	movq	32(%rax), %rax
	movq	%rax, -24(%rbp)
	jmp	LBB50_1
LBB50_43:
	jmp	LBB50_44
LBB50_44:
	leaq	-8232(%rbp), %rdi
	callq	_idxHashClear
	movl	-36(%rbp), %eax
	addq	$8288, %rsp             ## imm = 0x2060
	popq	%rbp
	retq
	.cfi_endproc
                                        ## -- End function
	.globl	_sqlite3_expert_count   ## -- Begin function sqlite3_expert_count
	.p2align	4, 0x90
_sqlite3_expert_count:                  ## @sqlite3_expert_count
	.cfi_startproc
## %bb.0:
	pushq	%rbp
	.cfi_def_cfa_offset 16
	.cfi_offset %rbp, -16
	movq	%rsp, %rbp
	.cfi_def_cfa_register %rbp
	movq	%rdi, -8(%rbp)
	movl	$0, -12(%rbp)
	movq	-8(%rbp), %rax
	cmpq	$0, 56(%rax)
	je	LBB51_2
## %bb.1:
	movq	-8(%rbp), %rax
	movq	56(%rax), %rax
	movl	(%rax), %ecx
	addl	$1, %ecx
	movl	%ecx, -12(%rbp)
LBB51_2:
	movl	-12(%rbp), %eax
	popq	%rbp
	retq
	.cfi_endproc
                                        ## -- End function
	.globl	_sqlite3_expert_report  ## -- Begin function sqlite3_expert_report
	.p2align	4, 0x90
_sqlite3_expert_report:                 ## @sqlite3_expert_report
	.cfi_startproc
## %bb.0:
	pushq	%rbp
	.cfi_def_cfa_offset 16
	.cfi_offset %rbp, -16
	movq	%rsp, %rbp
	.cfi_def_cfa_register %rbp
	movq	%rdi, -16(%rbp)
	movl	%esi, -20(%rbp)
	movl	%edx, -24(%rbp)
	movq	$0, -32(%rbp)
	movq	-16(%rbp), %rax
	cmpl	$0, 64(%rax)
	jne	LBB52_2
## %bb.1:
	movq	$0, -8(%rbp)
	jmp	LBB52_20
LBB52_2:
	movq	-16(%rbp), %rax
	movq	56(%rax), %rax
	movq	%rax, -40(%rbp)
LBB52_3:                                ## =>This Inner Loop Header: Depth=1
	xorl	%eax, %eax
                                        ## kill: def $al killed $al killed $eax
	cmpq	$0, -40(%rbp)
	movb	%al, -41(%rbp)          ## 1-byte Spill
	je	LBB52_5
## %bb.4:                               ##   in Loop: Header=BB52_3 Depth=1
	movq	-40(%rbp), %rax
	movl	(%rax), %ecx
	cmpl	-20(%rbp), %ecx
	setne	%dl
	movb	%dl, -41(%rbp)          ## 1-byte Spill
LBB52_5:                                ##   in Loop: Header=BB52_3 Depth=1
	movb	-41(%rbp), %al          ## 1-byte Reload
	testb	$1, %al
	jne	LBB52_6
	jmp	LBB52_8
LBB52_6:                                ##   in Loop: Header=BB52_3 Depth=1
	jmp	LBB52_7
LBB52_7:                                ##   in Loop: Header=BB52_3 Depth=1
	movq	-40(%rbp), %rax
	movq	32(%rax), %rax
	movq	%rax, -40(%rbp)
	jmp	LBB52_3
LBB52_8:
	movl	-24(%rbp), %eax
	decl	%eax
	movl	%eax, %ecx
	subl	$3, %eax
	movq	%rcx, -56(%rbp)         ## 8-byte Spill
	ja	LBB52_19
## %bb.21:
	leaq	LJTI52_0(%rip), %rax
	movq	-56(%rbp), %rcx         ## 8-byte Reload
	movslq	(%rax,%rcx,4), %rdx
	addq	%rax, %rdx
	jmpq	*%rdx
LBB52_9:
	cmpq	$0, -40(%rbp)
	je	LBB52_11
## %bb.10:
	movq	-40(%rbp), %rax
	movq	8(%rax), %rax
	movq	%rax, -32(%rbp)
LBB52_11:
	jmp	LBB52_19
LBB52_12:
	cmpq	$0, -40(%rbp)
	je	LBB52_14
## %bb.13:
	movq	-40(%rbp), %rax
	movq	16(%rax), %rax
	movq	%rax, -32(%rbp)
LBB52_14:
	jmp	LBB52_19
LBB52_15:
	cmpq	$0, -40(%rbp)
	je	LBB52_17
## %bb.16:
	movq	-40(%rbp), %rax
	movq	24(%rax), %rax
	movq	%rax, -32(%rbp)
LBB52_17:
	jmp	LBB52_19
LBB52_18:
	movq	-16(%rbp), %rax
	movq	8280(%rax), %rax
	movq	%rax, -32(%rbp)
LBB52_19:
	movq	-32(%rbp), %rax
	movq	%rax, -8(%rbp)
LBB52_20:
	movq	-8(%rbp), %rax
	popq	%rbp
	retq
	.cfi_endproc
	.p2align	2, 0x90
	.data_region jt32
.set L52_0_set_9, LBB52_9-LJTI52_0
.set L52_0_set_12, LBB52_12-LJTI52_0
.set L52_0_set_15, LBB52_15-LJTI52_0
.set L52_0_set_18, LBB52_18-LJTI52_0
LJTI52_0:
	.long	L52_0_set_9
	.long	L52_0_set_12
	.long	L52_0_set_15
	.long	L52_0_set_18
	.end_data_region
                                        ## -- End function
	.p2align	4, 0x90         ## -- Begin function idxTableFree
_idxTableFree:                          ## @idxTableFree
	.cfi_startproc
## %bb.0:
	pushq	%rbp
	.cfi_def_cfa_offset 16
	.cfi_offset %rbp, -16
	movq	%rsp, %rbp
	.cfi_def_cfa_register %rbp
	subq	$32, %rsp
	movq	%rdi, -8(%rbp)
	movq	-8(%rbp), %rax
	movq	%rax, -16(%rbp)
LBB53_1:                                ## =>This Inner Loop Header: Depth=1
	cmpq	$0, -16(%rbp)
	je	LBB53_4
## %bb.2:                               ##   in Loop: Header=BB53_1 Depth=1
	movq	-16(%rbp), %rax
	movq	24(%rax), %rax
	movq	%rax, -24(%rbp)
	movq	-16(%rbp), %rax
	movq	%rax, %rdi
	callq	_sqlite3_free
## %bb.3:                               ##   in Loop: Header=BB53_1 Depth=1
	movq	-24(%rbp), %rax
	movq	%rax, -16(%rbp)
	jmp	LBB53_1
LBB53_4:
	addq	$32, %rsp
	popq	%rbp
	retq
	.cfi_endproc
                                        ## -- End function
	.p2align	4, 0x90         ## -- Begin function idxWriteFree
_idxWriteFree:                          ## @idxWriteFree
	.cfi_startproc
## %bb.0:
	pushq	%rbp
	.cfi_def_cfa_offset 16
	.cfi_offset %rbp, -16
	movq	%rsp, %rbp
	.cfi_def_cfa_register %rbp
	subq	$32, %rsp
	movq	%rdi, -8(%rbp)
	movq	-8(%rbp), %rax
	movq	%rax, -16(%rbp)
LBB54_1:                                ## =>This Inner Loop Header: Depth=1
	cmpq	$0, -16(%rbp)
	je	LBB54_4
## %bb.2:                               ##   in Loop: Header=BB54_1 Depth=1
	movq	-16(%rbp), %rax
	movq	16(%rax), %rax
	movq	%rax, -24(%rbp)
	movq	-16(%rbp), %rax
	movq	%rax, %rdi
	callq	_sqlite3_free
## %bb.3:                               ##   in Loop: Header=BB54_1 Depth=1
	movq	-24(%rbp), %rax
	movq	%rax, -16(%rbp)
	jmp	LBB54_1
LBB54_4:
	addq	$32, %rsp
	popq	%rbp
	retq
	.cfi_endproc
                                        ## -- End function
	.p2align	4, 0x90         ## -- Begin function idxHashClear
_idxHashClear:                          ## @idxHashClear
	.cfi_startproc
## %bb.0:
	pushq	%rbp
	.cfi_def_cfa_offset 16
	.cfi_offset %rbp, -16
	movq	%rsp, %rbp
	.cfi_def_cfa_register %rbp
	subq	$32, %rsp
	movq	%rdi, -8(%rbp)
	movl	$0, -12(%rbp)
LBB55_1:                                ## =>This Loop Header: Depth=1
                                        ##     Child Loop BB55_3 Depth 2
	cmpl	$1023, -12(%rbp)        ## imm = 0x3FF
	jge	LBB55_8
## %bb.2:                               ##   in Loop: Header=BB55_1 Depth=1
	movq	-8(%rbp), %rax
	movslq	-12(%rbp), %rcx
	movq	8(%rax,%rcx,8), %rax
	movq	%rax, -24(%rbp)
LBB55_3:                                ##   Parent Loop BB55_1 Depth=1
                                        ## =>  This Inner Loop Header: Depth=2
	cmpq	$0, -24(%rbp)
	je	LBB55_6
## %bb.4:                               ##   in Loop: Header=BB55_3 Depth=2
	movq	-24(%rbp), %rax
	movq	24(%rax), %rax
	movq	%rax, -32(%rbp)
	movq	-24(%rbp), %rax
	movq	16(%rax), %rdi
	callq	_sqlite3_free
	movq	-24(%rbp), %rax
	movq	%rax, %rdi
	callq	_sqlite3_free
## %bb.5:                               ##   in Loop: Header=BB55_3 Depth=2
	movq	-32(%rbp), %rax
	movq	%rax, -24(%rbp)
	jmp	LBB55_3
LBB55_6:                                ##   in Loop: Header=BB55_1 Depth=1
	jmp	LBB55_7
LBB55_7:                                ##   in Loop: Header=BB55_1 Depth=1
	movl	-12(%rbp), %eax
	addl	$1, %eax
	movl	%eax, -12(%rbp)
	jmp	LBB55_1
LBB55_8:
	xorl	%esi, %esi
	movq	$-1, %rcx
	movq	-8(%rbp), %rax
	movq	%rax, %rdi
	movl	$8192, %edx             ## imm = 0x2000
	callq	___memset_chk
	addq	$32, %rsp
	popq	%rbp
	retq
	.cfi_endproc
                                        ## -- End function
	.section	__TEXT,__literal16,16byte_literals
	.p2align	4               ## -- Begin function deduceDatabaseType
LCPI56_0:
	.byte	83                      ## 0x53
	.byte	81                      ## 0x51
	.byte	76                      ## 0x4c
	.byte	105                     ## 0x69
	.byte	116                     ## 0x74
	.byte	101                     ## 0x65
	.byte	32                      ## 0x20
	.byte	102                     ## 0x66
	.byte	111                     ## 0x6f
	.byte	114                     ## 0x72
	.byte	109                     ## 0x6d
	.byte	97                      ## 0x61
	.byte	116                     ## 0x74
	.byte	32                      ## 0x20
	.byte	51                      ## 0x33
	.byte	0                       ## 0x0
	.section	__TEXT,__text,regular,pure_instructions
	.globl	_deduceDatabaseType
	.p2align	4, 0x90
_deduceDatabaseType:                    ## @deduceDatabaseType
	.cfi_startproc
## %bb.0:
	pushq	%rbp
	.cfi_def_cfa_offset 16
	.cfi_offset %rbp, -16
	movq	%rsp, %rbp
	.cfi_def_cfa_register %rbp
	subq	$176, %rsp
	movq	___stack_chk_guard@GOTPCREL(%rip), %rax
	movq	(%rax), %rax
	movq	%rax, -8(%rbp)
	movq	%rdi, -128(%rbp)
	movl	%esi, -132(%rbp)
	movq	-128(%rbp), %rdi
	leaq	L_.str.28(%rip), %rsi
	callq	_fopen
	movq	%rax, -144(%rbp)
	movl	$0, -156(%rbp)
	cmpq	$0, -144(%rbp)
	jne	LBB56_5
## %bb.1:
	cmpl	$0, -132(%rbp)
	je	LBB56_4
## %bb.2:
	xorl	%edx, %edx
	movq	-128(%rbp), %rsi
	leaq	L_.str.29(%rip), %rdi
	callq	_sqlite3_strlike
	cmpl	$0, %eax
	jne	LBB56_4
## %bb.3:
	movl	$3, -116(%rbp)
	jmp	LBB56_24
LBB56_4:
	movl	$1, -116(%rbp)
	jmp	LBB56_24
LBB56_5:
	leaq	-112(%rbp), %rdi
	movq	-144(%rbp), %rcx
	movl	$16, %esi
	movl	$1, %edx
	callq	_fread
	movq	%rax, -152(%rbp)
	cmpq	$1, -152(%rbp)
	jne	LBB56_8
## %bb.6:
	leaq	-112(%rbp), %rax
	movups	(%rax), %xmm0
	movaps	LCPI56_0(%rip), %xmm1   ## xmm1 = [83,81,76,105,116,101,32,102,111,114,109,97,116,32,51,0]
	pcmpeqb	%xmm1, %xmm0
	pmovmskb	%xmm0, %ecx
	subl	$65535, %ecx            ## imm = 0xFFFF
	setne	%dl
	movzbl	%dl, %esi
	cmpl	$0, %esi
	jne	LBB56_8
## %bb.7:
	movq	-144(%rbp), %rdi
	callq	_fclose
	movl	$1, -116(%rbp)
	jmp	LBB56_24
LBB56_8:
	movq	-144(%rbp), %rdi
	movq	$-25, %rsi
	movl	$2, %edx
	callq	_fseek
	leaq	-112(%rbp), %rdi
	movq	-144(%rbp), %rcx
	movl	$25, %esi
	movl	$1, %edx
	movl	%eax, -160(%rbp)        ## 4-byte Spill
	callq	_fread
	movq	%rax, -152(%rbp)
	cmpq	$1, -152(%rbp)
	jne	LBB56_11
## %bb.9:
	leaq	-112(%rbp), %rdi
	leaq	L_.str.31(%rip), %rsi
	movl	$17, %edx
	callq	_memcmp
	cmpl	$0, %eax
	jne	LBB56_11
## %bb.10:
	movl	$2, -156(%rbp)
	jmp	LBB56_23
LBB56_11:
	movq	-144(%rbp), %rdi
	movq	$-22, %rsi
	movl	$2, %edx
	callq	_fseek
	leaq	-112(%rbp), %rdi
	movq	-144(%rbp), %rcx
	movl	$22, %esi
	movl	$1, %edx
	movl	%eax, -164(%rbp)        ## 4-byte Spill
	callq	_fread
	movq	%rax, -152(%rbp)
	cmpq	$1, -152(%rbp)
	jne	LBB56_17
## %bb.12:
	movsbl	-112(%rbp), %eax
	cmpl	$80, %eax
	jne	LBB56_17
## %bb.13:
	movsbl	-111(%rbp), %eax
	cmpl	$75, %eax
	jne	LBB56_17
## %bb.14:
	movsbl	-110(%rbp), %eax
	cmpl	$5, %eax
	jne	LBB56_17
## %bb.15:
	movsbl	-109(%rbp), %eax
	cmpl	$6, %eax
	jne	LBB56_17
## %bb.16:
	movl	$3, -156(%rbp)
	jmp	LBB56_22
LBB56_17:
	cmpq	$0, -152(%rbp)
	jne	LBB56_21
## %bb.18:
	cmpl	$0, -132(%rbp)
	je	LBB56_21
## %bb.19:
	xorl	%edx, %edx
	movq	-128(%rbp), %rsi
	leaq	L_.str.29(%rip), %rdi
	callq	_sqlite3_strlike
	cmpl	$0, %eax
	jne	LBB56_21
## %bb.20:
	movl	$3, -156(%rbp)
LBB56_21:
	jmp	LBB56_22
LBB56_22:
	jmp	LBB56_23
LBB56_23:
	movq	-144(%rbp), %rdi
	callq	_fclose
	movl	-156(%rbp), %ecx
	movl	%ecx, -116(%rbp)
LBB56_24:
	movl	-116(%rbp), %eax
	movq	___stack_chk_guard@GOTPCREL(%rip), %rcx
	movq	(%rcx), %rcx
	movq	-8(%rbp), %rdx
	cmpq	%rdx, %rcx
	movl	%eax, -168(%rbp)        ## 4-byte Spill
	jne	LBB56_26
## %bb.25:
	movl	-168(%rbp), %eax        ## 4-byte Reload
	addq	$176, %rsp
	popq	%rbp
	retq
LBB56_26:
	callq	___stack_chk_fail
	ud2
	.cfi_endproc
                                        ## -- End function
	.globl	_close_db               ## -- Begin function close_db
	.p2align	4, 0x90
_close_db:                              ## @close_db
	.cfi_startproc
## %bb.0:
	pushq	%rbp
	.cfi_def_cfa_offset 16
	.cfi_offset %rbp, -16
	movq	%rsp, %rbp
	.cfi_def_cfa_register %rbp
	subq	$32, %rsp
	movq	%rdi, -8(%rbp)
	movq	-8(%rbp), %rdi
	callq	_sqlite3_close
	movl	%eax, -12(%rbp)
	cmpl	$0, -12(%rbp)
	je	LBB57_2
## %bb.1:
	movq	___stderrp@GOTPCREL(%rip), %rax
	movq	(%rax), %rdi
	movl	-12(%rbp), %edx
	movq	-8(%rbp), %rax
	movq	%rdi, -24(%rbp)         ## 8-byte Spill
	movq	%rax, %rdi
	movl	%edx, -28(%rbp)         ## 4-byte Spill
	callq	_sqlite3_errmsg
	movq	-24(%rbp), %rdi         ## 8-byte Reload
	leaq	L_.str.32(%rip), %rsi
	movl	-28(%rbp), %edx         ## 4-byte Reload
	movq	%rax, %rcx
	movb	$0, %al
	callq	_fprintf
LBB57_2:
	addq	$32, %rsp
	popq	%rbp
	retq
	.cfi_endproc
                                        ## -- End function
	.globl	_shellDeleteFile        ## -- Begin function shellDeleteFile
	.p2align	4, 0x90
_shellDeleteFile:                       ## @shellDeleteFile
	.cfi_startproc
## %bb.0:
	pushq	%rbp
	.cfi_def_cfa_offset 16
	.cfi_offset %rbp, -16
	movq	%rsp, %rbp
	.cfi_def_cfa_register %rbp
	subq	$16, %rsp
	movq	%rdi, -8(%rbp)
	movq	-8(%rbp), %rdi
	callq	_unlink
	movl	%eax, -12(%rbp)
	movl	-12(%rbp), %eax
	addq	$16, %rsp
	popq	%rbp
	retq
	.cfi_endproc
                                        ## -- End function
	.globl	_shellPreparePrintf     ## -- Begin function shellPreparePrintf
	.p2align	4, 0x90
_shellPreparePrintf:                    ## @shellPreparePrintf
	.cfi_startproc
## %bb.0:
	pushq	%rbp
	.cfi_def_cfa_offset 16
	.cfi_offset %rbp, -16
	movq	%rsp, %rbp
	.cfi_def_cfa_register %rbp
	subq	$432, %rsp              ## imm = 0x1B0
	testb	%al, %al
	movaps	%xmm7, -272(%rbp)       ## 16-byte Spill
	movaps	%xmm6, -288(%rbp)       ## 16-byte Spill
	movaps	%xmm5, -304(%rbp)       ## 16-byte Spill
	movaps	%xmm4, -320(%rbp)       ## 16-byte Spill
	movaps	%xmm3, -336(%rbp)       ## 16-byte Spill
	movaps	%xmm2, -352(%rbp)       ## 16-byte Spill
	movaps	%xmm1, -368(%rbp)       ## 16-byte Spill
	movaps	%xmm0, -384(%rbp)       ## 16-byte Spill
	movq	%r9, -392(%rbp)         ## 8-byte Spill
	movq	%r8, -400(%rbp)         ## 8-byte Spill
	movq	%rcx, -408(%rbp)        ## 8-byte Spill
	movq	%rdx, -416(%rbp)        ## 8-byte Spill
	movq	%rsi, -424(%rbp)        ## 8-byte Spill
	movq	%rdi, -432(%rbp)        ## 8-byte Spill
	je	LBB59_9
## %bb.8:
	movaps	-384(%rbp), %xmm0       ## 16-byte Reload
	movaps	%xmm0, -208(%rbp)
	movaps	-368(%rbp), %xmm1       ## 16-byte Reload
	movaps	%xmm1, -192(%rbp)
	movaps	-352(%rbp), %xmm2       ## 16-byte Reload
	movaps	%xmm2, -176(%rbp)
	movaps	-336(%rbp), %xmm3       ## 16-byte Reload
	movaps	%xmm3, -160(%rbp)
	movaps	-320(%rbp), %xmm4       ## 16-byte Reload
	movaps	%xmm4, -144(%rbp)
	movaps	-304(%rbp), %xmm5       ## 16-byte Reload
	movaps	%xmm5, -128(%rbp)
	movaps	-288(%rbp), %xmm6       ## 16-byte Reload
	movaps	%xmm6, -112(%rbp)
	movaps	-272(%rbp), %xmm7       ## 16-byte Reload
	movaps	%xmm7, -96(%rbp)
LBB59_9:
	movq	-392(%rbp), %rax        ## 8-byte Reload
	movq	%rax, -216(%rbp)
	movq	-400(%rbp), %rcx        ## 8-byte Reload
	movq	%rcx, -224(%rbp)
	movq	___stack_chk_guard@GOTPCREL(%rip), %rdx
	movq	(%rdx), %rdx
	movq	%rdx, -8(%rbp)
	movq	-432(%rbp), %rdx        ## 8-byte Reload
	movq	%rdx, -40(%rbp)
	movq	-424(%rbp), %rsi        ## 8-byte Reload
	movq	%rsi, -48(%rbp)
	movq	-416(%rbp), %rdi        ## 8-byte Reload
	movq	%rdi, -56(%rbp)
	movq	-408(%rbp), %r8         ## 8-byte Reload
	movq	%r8, -64(%rbp)
	movq	-56(%rbp), %r9
	movq	$0, (%r9)
	movq	-48(%rbp), %r9
	cmpl	$0, (%r9)
	jne	LBB59_5
## %bb.1:
	leaq	-32(%rbp), %rax
	movq	%rax, %rcx
	leaq	-256(%rbp), %rdx
	movq	%rdx, 16(%rcx)
	leaq	16(%rbp), %rdx
	movq	%rdx, 8(%rcx)
	movl	$48, 4(%rcx)
	movl	$32, (%rcx)
	movq	-64(%rbp), %rdi
	movq	%rax, %rsi
	callq	_sqlite3_vmprintf
	leaq	-32(%rbp), %rcx
	movq	%rax, -72(%rbp)
	cmpq	$0, -72(%rbp)
	jne	LBB59_3
## %bb.2:
	movq	-48(%rbp), %rax
	movl	$7, (%rax)
	jmp	LBB59_4
LBB59_3:
	movq	-40(%rbp), %rdi
	movq	-48(%rbp), %rsi
	movq	-72(%rbp), %rdx
	movq	-56(%rbp), %rcx
	callq	_shellPrepare
	movq	-72(%rbp), %rdi
	callq	_sqlite3_free
LBB59_4:
	jmp	LBB59_5
LBB59_5:
	movq	___stack_chk_guard@GOTPCREL(%rip), %rax
	movq	(%rax), %rax
	movq	-8(%rbp), %rcx
	cmpq	%rcx, %rax
	jne	LBB59_7
## %bb.6:
	addq	$432, %rsp              ## imm = 0x1B0
	popq	%rbp
	retq
LBB59_7:
	callq	___stack_chk_fail
	ud2
	.cfi_endproc
                                        ## -- End function
	.p2align	4, 0x90         ## -- Begin function shellPrepare
_shellPrepare:                          ## @shellPrepare
	.cfi_startproc
## %bb.0:
	pushq	%rbp
	.cfi_def_cfa_offset 16
	.cfi_offset %rbp, -16
	movq	%rsp, %rbp
	.cfi_def_cfa_register %rbp
	subq	$64, %rsp
	movq	%rdi, -8(%rbp)
	movq	%rsi, -16(%rbp)
	movq	%rdx, -24(%rbp)
	movq	%rcx, -32(%rbp)
	movq	-32(%rbp), %rax
	movq	$0, (%rax)
	movq	-16(%rbp), %rax
	cmpl	$0, (%rax)
	jne	LBB60_4
## %bb.1:
	xorl	%eax, %eax
	movl	%eax, %r8d
	movq	-8(%rbp), %rdi
	movq	-24(%rbp), %rsi
	movq	-32(%rbp), %rcx
	movl	$4294967295, %edx       ## imm = 0xFFFFFFFF
	callq	_sqlite3_prepare_v2
	movl	%eax, -36(%rbp)
	cmpl	$0, -36(%rbp)
	je	LBB60_3
## %bb.2:
	movq	___stderrp@GOTPCREL(%rip), %rax
	movq	(%rax), %rdi
	movq	-8(%rbp), %rax
	movq	%rdi, -48(%rbp)         ## 8-byte Spill
	movq	%rax, %rdi
	callq	_sqlite3_errmsg
	movq	-8(%rbp), %rdi
	movq	%rax, -56(%rbp)         ## 8-byte Spill
	callq	_sqlite3_errcode
	movq	-48(%rbp), %rdi         ## 8-byte Reload
	leaq	L_.str.221(%rip), %rsi
	movq	-56(%rbp), %rdx         ## 8-byte Reload
	movl	%eax, %ecx
	movb	$0, %al
	callq	_fprintf
	movl	-36(%rbp), %ecx
	movq	-16(%rbp), %rdx
	movl	%ecx, (%rdx)
LBB60_3:
	jmp	LBB60_4
LBB60_4:
	addq	$64, %rsp
	popq	%rbp
	retq
	.cfi_endproc
                                        ## -- End function
	.globl	_shellFinalize          ## -- Begin function shellFinalize
	.p2align	4, 0x90
_shellFinalize:                         ## @shellFinalize
	.cfi_startproc
## %bb.0:
	pushq	%rbp
	.cfi_def_cfa_offset 16
	.cfi_offset %rbp, -16
	movq	%rsp, %rbp
	.cfi_def_cfa_register %rbp
	subq	$48, %rsp
	movq	%rdi, -8(%rbp)
	movq	%rsi, -16(%rbp)
	cmpq	$0, -16(%rbp)
	je	LBB61_6
## %bb.1:
	movq	-16(%rbp), %rdi
	callq	_sqlite3_db_handle
	movq	%rax, -24(%rbp)
	movq	-16(%rbp), %rdi
	callq	_sqlite3_finalize
	movl	%eax, -28(%rbp)
	movq	-8(%rbp), %rcx
	cmpl	$0, (%rcx)
	jne	LBB61_5
## %bb.2:
	cmpl	$0, -28(%rbp)
	je	LBB61_4
## %bb.3:
	movq	___stderrp@GOTPCREL(%rip), %rax
	movq	(%rax), %rdi
	movq	-24(%rbp), %rax
	movq	%rdi, -40(%rbp)         ## 8-byte Spill
	movq	%rax, %rdi
	callq	_sqlite3_errmsg
	movq	-40(%rbp), %rdi         ## 8-byte Reload
	leaq	L_.str.33(%rip), %rsi
	movq	%rax, %rdx
	movb	$0, %al
	callq	_fprintf
LBB61_4:
	movl	-28(%rbp), %eax
	movq	-8(%rbp), %rcx
	movl	%eax, (%rcx)
LBB61_5:
	jmp	LBB61_6
LBB61_6:
	addq	$48, %rsp
	popq	%rbp
	retq
	.cfi_endproc
                                        ## -- End function
	.globl	_shellReset             ## -- Begin function shellReset
	.p2align	4, 0x90
_shellReset:                            ## @shellReset
	.cfi_startproc
## %bb.0:
	pushq	%rbp
	.cfi_def_cfa_offset 16
	.cfi_offset %rbp, -16
	movq	%rsp, %rbp
	.cfi_def_cfa_register %rbp
	subq	$48, %rsp
	movq	%rdi, -8(%rbp)
	movq	%rsi, -16(%rbp)
	movq	-16(%rbp), %rdi
	callq	_sqlite3_reset
	movl	%eax, -20(%rbp)
	movq	-8(%rbp), %rcx
	cmpl	$0, (%rcx)
	jne	LBB62_4
## %bb.1:
	cmpl	$0, -20(%rbp)
	je	LBB62_3
## %bb.2:
	movq	-16(%rbp), %rdi
	callq	_sqlite3_db_handle
	movq	___stderrp@GOTPCREL(%rip), %rcx
	movq	%rax, -32(%rbp)
	movq	(%rcx), %rdi
	movq	-32(%rbp), %rax
	movq	%rdi, -40(%rbp)         ## 8-byte Spill
	movq	%rax, %rdi
	callq	_sqlite3_errmsg
	movq	-40(%rbp), %rdi         ## 8-byte Reload
	leaq	L_.str.33(%rip), %rsi
	movq	%rax, %rdx
	movb	$0, %al
	callq	_fprintf
LBB62_3:
	movl	-20(%rbp), %eax
	movq	-8(%rbp), %rcx
	movl	%eax, (%rcx)
LBB62_4:
	addq	$48, %rsp
	popq	%rbp
	retq
	.cfi_endproc
                                        ## -- End function
	.globl	_main                   ## -- Begin function main
	.p2align	4, 0x90
_main:                                  ## @main
	.cfi_startproc
## %bb.0:
	pushq	%rbp
	.cfi_def_cfa_offset 16
	.cfi_offset %rbp, -16
	movq	%rsp, %rbp
	.cfi_def_cfa_register %rbp
	subq	$2000, %rsp             ## imm = 0x7D0
	xorl	%eax, %eax
	movl	%eax, %ecx
	movq	___stderrp@GOTPCREL(%rip), %rdx
	movq	___stack_chk_guard@GOTPCREL(%rip), %r8
	movq	(%r8), %r8
	movq	%r8, -8(%rbp)
	movl	$0, -1652(%rbp)
	movl	%edi, -1656(%rbp)
	movq	%rsi, -1664(%rbp)
	movq	$0, -1672(%rbp)
	movq	$0, -1680(%rbp)
	movl	$0, -1688(%rbp)
	movl	$0, -1692(%rbp)
	movl	$1, -1696(%rbp)
	movl	$0, -1700(%rbp)
	movq	$0, -1712(%rbp)
	movq	$0, -1720(%rbp)
	movq	(%rdx), %rdi
	movq	%rcx, %rsi
	movl	$2, %edx
	callq	_setvbuf
	xorl	%edi, %edi
	movl	%eax, -1808(%rbp)       ## 4-byte Spill
	callq	_isatty
	movl	%eax, _stdin_is_interactive(%rip)
	movl	$1, %edi
	callq	_isatty
	movl	%eax, _stdout_is_console(%rip)
	leaq	L_.str.34(%rip), %rdi
	callq	_getenv
	cmpq	$0, %rax
	je	LBB63_6
## %bb.1:
	xorl	%edi, %edi
	callq	_isatty
	cmpl	$0, %eax
	je	LBB63_4
## %bb.2:
	movl	$2, %edi
	callq	_isatty
	cmpl	$0, %eax
	je	LBB63_4
## %bb.3:
	movq	___stderrp@GOTPCREL(%rip), %rax
	movq	(%rax), %rdi
	movq	%rdi, -1816(%rbp)       ## 8-byte Spill
	callq	_getpid
	movq	-1816(%rbp), %rdi       ## 8-byte Reload
	leaq	L_.str.35(%rip), %rsi
	movl	%eax, %edx
	movb	$0, %al
	callq	_fprintf
	movq	___stdinp@GOTPCREL(%rip), %rcx
	movq	(%rcx), %rdi
	movl	%eax, -1820(%rbp)       ## 4-byte Spill
	callq	_fgetc
	jmp	LBB63_5
LBB63_4:
	movl	$5, %edi
	callq	_raise
LBB63_5:
	jmp	LBB63_6
LBB63_6:
	callq	_sqlite3_sourceid
	movq	%rax, %rdi
	leaq	L_.str.36(%rip), %rsi
	movl	$60, %edx
	callq	_strncmp
	cmpl	$0, %eax
	je	LBB63_8
## %bb.7:
	movq	___stderrp@GOTPCREL(%rip), %rax
	movq	(%rax), %rdi
	movq	%rdi, -1832(%rbp)       ## 8-byte Spill
	callq	_sqlite3_sourceid
	leaq	L_.str.37(%rip), %rsi
	leaq	L_.str.36(%rip), %rcx
	xorl	%edx, %edx
                                        ## kill: def $dl killed $dl killed $edx
	movq	-1832(%rbp), %rdi       ## 8-byte Reload
	movb	%dl, -1833(%rbp)        ## 1-byte Spill
	movq	%rax, %rdx
	movb	-1833(%rbp), %al        ## 1-byte Reload
	callq	_fprintf
	movl	$1, %edi
	movl	%eax, -1840(%rbp)       ## 4-byte Spill
	callq	_exit
LBB63_8:
	leaq	-1648(%rbp), %rdi
	callq	_main_init
	xorl	%eax, %eax
                                        ## kill: def $al killed $al killed $eax
	cmpl	$1, -1656(%rbp)
	movb	%al, -1841(%rbp)        ## 1-byte Spill
	jl	LBB63_11
## %bb.9:
	xorl	%eax, %eax
                                        ## kill: def $al killed $al killed $eax
	cmpq	$0, -1664(%rbp)
	movb	%al, -1841(%rbp)        ## 1-byte Spill
	je	LBB63_11
## %bb.10:
	movq	-1664(%rbp), %rax
	cmpq	$0, (%rax)
	setne	%cl
	movb	%cl, -1841(%rbp)        ## 1-byte Spill
LBB63_11:
	movb	-1841(%rbp), %al        ## 1-byte Reload
	xorb	$-1, %al
	andb	$1, %al
	movzbl	%al, %ecx
	movslq	%ecx, %rdx
	cmpq	$0, %rdx
	je	LBB63_13
## %bb.12:
	leaq	L___func__.main(%rip), %rdi
	leaq	L_.str.38(%rip), %rsi
	leaq	L_.str.39(%rip), %rcx
	movl	$22996, %edx            ## imm = 0x59D4
	callq	___assert_rtn
LBB63_13:
	jmp	LBB63_14
LBB63_14:
	movq	-1664(%rbp), %rax
	movq	(%rax), %rax
	movq	%rax, _Argv0(%rip)
	movl	$2, %edi
	leaq	_interrupt_handler(%rip), %rsi
	callq	_signal
	movq	%rax, -1856(%rbp)       ## 8-byte Spill
	callq	_verify_uninitialized
	movl	$1, -1684(%rbp)
LBB63_15:                               ## =>This Inner Loop Header: Depth=1
	movl	-1684(%rbp), %eax
	cmpl	-1656(%rbp), %eax
	jge	LBB63_104
## %bb.16:                              ##   in Loop: Header=BB63_15 Depth=1
	movq	-1664(%rbp), %rax
	movslq	-1684(%rbp), %rcx
	movq	(%rax,%rcx,8), %rax
	movq	%rax, -1728(%rbp)
	movq	-1728(%rbp), %rax
	movsbl	(%rax), %edx
	cmpl	$45, %edx
	je	LBB63_21
## %bb.17:                              ##   in Loop: Header=BB63_15 Depth=1
	cmpq	$0, -288(%rbp)
	jne	LBB63_19
## %bb.18:                              ##   in Loop: Header=BB63_15 Depth=1
	movq	-1728(%rbp), %rax
	movq	%rax, -288(%rbp)
	jmp	LBB63_20
LBB63_19:                               ##   in Loop: Header=BB63_15 Depth=1
	movl	$0, -1696(%rbp)
	movl	-1700(%rbp), %eax
	addl	$1, %eax
	movl	%eax, -1700(%rbp)
	movq	-1712(%rbp), %rcx
	movslq	-1700(%rbp), %rdx
	shlq	$3, %rdx
	movq	%rcx, %rdi
	movq	%rdx, %rsi
	callq	_realloc
	movq	%rax, -1712(%rbp)
	movq	-1712(%rbp), %rax
	movq	%rax, %rdi
	callq	_shell_check_oom
	movq	-1728(%rbp), %rax
	movq	-1712(%rbp), %rcx
	movl	-1700(%rbp), %r8d
	subl	$1, %r8d
	movslq	%r8d, %rdx
	movq	%rax, (%rcx,%rdx,8)
LBB63_20:                               ##   in Loop: Header=BB63_15 Depth=1
	jmp	LBB63_21
LBB63_21:                               ##   in Loop: Header=BB63_15 Depth=1
	movq	-1728(%rbp), %rax
	movsbl	1(%rax), %ecx
	cmpl	$45, %ecx
	jne	LBB63_23
## %bb.22:                              ##   in Loop: Header=BB63_15 Depth=1
	movq	-1728(%rbp), %rax
	addq	$1, %rax
	movq	%rax, -1728(%rbp)
LBB63_23:                               ##   in Loop: Header=BB63_15 Depth=1
	movq	-1728(%rbp), %rdi
	leaq	L_.str.40(%rip), %rsi
	callq	_strcmp
	cmpl	$0, %eax
	je	LBB63_27
## %bb.24:                              ##   in Loop: Header=BB63_15 Depth=1
	movq	-1728(%rbp), %rdi
	leaq	L_.str.41(%rip), %rsi
	callq	_strcmp
	cmpl	$0, %eax
	je	LBB63_27
## %bb.25:                              ##   in Loop: Header=BB63_15 Depth=1
	movq	-1728(%rbp), %rdi
	leaq	L_.str.42(%rip), %rsi
	callq	_strcmp
	cmpl	$0, %eax
	je	LBB63_27
## %bb.26:                              ##   in Loop: Header=BB63_15 Depth=1
	movq	-1728(%rbp), %rdi
	leaq	L_.str.43(%rip), %rsi
	callq	_strcmp
	cmpl	$0, %eax
	jne	LBB63_28
LBB63_27:                               ##   in Loop: Header=BB63_15 Depth=1
	movl	-1656(%rbp), %edi
	movq	-1664(%rbp), %rsi
	movl	-1684(%rbp), %eax
	addl	$1, %eax
	movl	%eax, -1684(%rbp)
	movl	%eax, %edx
	callq	_cmdline_option_value
	jmp	LBB63_102
LBB63_28:                               ##   in Loop: Header=BB63_15 Depth=1
	movq	-1728(%rbp), %rdi
	leaq	L_.str.44(%rip), %rsi
	callq	_strcmp
	cmpl	$0, %eax
	jne	LBB63_30
## %bb.29:                              ##   in Loop: Header=BB63_15 Depth=1
	movl	-1656(%rbp), %edi
	movq	-1664(%rbp), %rsi
	movl	-1684(%rbp), %eax
	addl	$1, %eax
	movl	%eax, -1684(%rbp)
	movl	%eax, %edx
	callq	_cmdline_option_value
	movq	%rax, -1680(%rbp)
	jmp	LBB63_101
LBB63_30:                               ##   in Loop: Header=BB63_15 Depth=1
	movq	-1728(%rbp), %rdi
	leaq	L_.str.45(%rip), %rsi
	callq	_strcmp
	cmpl	$0, %eax
	jne	LBB63_32
## %bb.31:                              ##   in Loop: Header=BB63_15 Depth=1
	movl	$0, _stdin_is_interactive(%rip)
	jmp	LBB63_100
LBB63_32:                               ##   in Loop: Header=BB63_15 Depth=1
	movq	-1728(%rbp), %rdi
	leaq	L_.str.46(%rip), %rsi
	callq	_strcmp
	cmpl	$0, %eax
	jne	LBB63_34
## %bb.33:                              ##   in Loop: Header=BB63_15 Depth=1
	movl	-1656(%rbp), %edi
	movq	-1664(%rbp), %rsi
	movl	-1684(%rbp), %eax
	addl	$1, %eax
	movl	%eax, -1684(%rbp)
	movl	%eax, %edx
	callq	_cmdline_option_value
	jmp	LBB63_99
LBB63_34:                               ##   in Loop: Header=BB63_15 Depth=1
	movq	-1728(%rbp), %rdi
	leaq	L_.str.47(%rip), %rsi
	callq	_strcmp
	cmpl	$0, %eax
	jne	LBB63_48
## %bb.35:                              ##   in Loop: Header=BB63_15 Depth=1
	movl	-1656(%rbp), %edi
	movq	-1664(%rbp), %rsi
	movl	-1684(%rbp), %eax
	addl	$1, %eax
	movl	%eax, -1684(%rbp)
	movl	%eax, %edx
	callq	_cmdline_option_value
	movq	%rax, %rdi
	callq	_integerValue
	movq	%rax, -1744(%rbp)
	cmpq	$70000, -1744(%rbp)     ## imm = 0x11170
	jle	LBB63_37
## %bb.36:                              ##   in Loop: Header=BB63_15 Depth=1
	movq	$70000, -1744(%rbp)     ## imm = 0x11170
LBB63_37:                               ##   in Loop: Header=BB63_15 Depth=1
	cmpq	$0, -1744(%rbp)
	jge	LBB63_39
## %bb.38:                              ##   in Loop: Header=BB63_15 Depth=1
	movq	$0, -1744(%rbp)
LBB63_39:                               ##   in Loop: Header=BB63_15 Depth=1
	movl	-1656(%rbp), %edi
	movq	-1664(%rbp), %rsi
	movl	-1684(%rbp), %eax
	addl	$1, %eax
	movl	%eax, -1684(%rbp)
	movl	%eax, %edx
	callq	_cmdline_option_value
	movq	%rax, %rdi
	callq	_integerValue
	movq	%rax, -1736(%rbp)
	cmpq	$0, -1744(%rbp)
	jle	LBB63_43
## %bb.40:                              ##   in Loop: Header=BB63_15 Depth=1
	cmpq	$0, -1736(%rbp)
	jle	LBB63_43
## %bb.41:                              ##   in Loop: Header=BB63_15 Depth=1
	movabsq	$281474976710655, %rax  ## imm = 0xFFFFFFFFFFFF
	cqto
	idivq	-1744(%rbp)
	cmpq	-1736(%rbp), %rax
	jge	LBB63_43
## %bb.42:                              ##   in Loop: Header=BB63_15 Depth=1
	movabsq	$281474976710655, %rax  ## imm = 0xFFFFFFFFFFFF
	cqto
	idivq	-1744(%rbp)
	movq	%rax, -1736(%rbp)
LBB63_43:                               ##   in Loop: Header=BB63_15 Depth=1
	cmpq	$0, -1736(%rbp)
	jle	LBB63_46
## %bb.44:                              ##   in Loop: Header=BB63_15 Depth=1
	cmpq	$0, -1744(%rbp)
	jle	LBB63_46
## %bb.45:                              ##   in Loop: Header=BB63_15 Depth=1
	movq	-1736(%rbp), %rax
	imulq	-1744(%rbp), %rax
	movq	%rax, %rdi
	callq	_malloc
	movq	%rax, -1864(%rbp)       ## 8-byte Spill
	jmp	LBB63_47
LBB63_46:                               ##   in Loop: Header=BB63_15 Depth=1
	xorl	%eax, %eax
	movl	%eax, %ecx
	movq	%rcx, -1864(%rbp)       ## 8-byte Spill
	jmp	LBB63_47
LBB63_47:                               ##   in Loop: Header=BB63_15 Depth=1
	movq	-1864(%rbp), %rax       ## 8-byte Reload
	movq	-1744(%rbp), %rdx
	movq	-1736(%rbp), %rcx
	movl	$7, %edi
	movq	%rax, %rsi
	movb	$0, %al
	callq	_sqlite3_config
	movl	-1524(%rbp), %edi
	orl	$1, %edi
	movl	%edi, -1524(%rbp)
	jmp	LBB63_98
LBB63_48:                               ##   in Loop: Header=BB63_15 Depth=1
	movq	-1728(%rbp), %rdi
	leaq	L_.str.48(%rip), %rsi
	callq	_strcmp
	cmpl	$0, %eax
	jne	LBB63_56
## %bb.49:                              ##   in Loop: Header=BB63_15 Depth=1
	movl	-1656(%rbp), %edi
	movq	-1664(%rbp), %rsi
	movl	-1684(%rbp), %eax
	addl	$1, %eax
	movl	%eax, -1684(%rbp)
	movl	%eax, %edx
	callq	_cmdline_option_value
	movq	%rax, %rdi
	callq	_integerValue
                                        ## kill: def $eax killed $eax killed $rax
	movl	%eax, -1752(%rbp)
	cmpl	$0, -1752(%rbp)
	jge	LBB63_51
## %bb.50:                              ##   in Loop: Header=BB63_15 Depth=1
	movl	$0, -1752(%rbp)
LBB63_51:                               ##   in Loop: Header=BB63_15 Depth=1
	movl	-1656(%rbp), %edi
	movq	-1664(%rbp), %rsi
	movl	-1684(%rbp), %eax
	addl	$1, %eax
	movl	%eax, -1684(%rbp)
	movl	%eax, %edx
	callq	_cmdline_option_value
	movq	%rax, %rdi
	callq	_integerValue
                                        ## kill: def $eax killed $eax killed $rax
	movl	%eax, -1748(%rbp)
	cmpl	$0, -1748(%rbp)
	jge	LBB63_53
## %bb.52:                              ##   in Loop: Header=BB63_15 Depth=1
	movl	$0, -1748(%rbp)
LBB63_53:                               ##   in Loop: Header=BB63_15 Depth=1
	movl	-1752(%rbp), %esi
	movl	-1748(%rbp), %edx
	movl	$13, %edi
	movb	$0, %al
	callq	_sqlite3_config
	movl	-1752(%rbp), %ecx
	imull	-1748(%rbp), %ecx
	cmpl	$0, %ecx
	jne	LBB63_55
## %bb.54:                              ##   in Loop: Header=BB63_15 Depth=1
	movl	-1524(%rbp), %eax
	andl	$-3, %eax
	movl	%eax, -1524(%rbp)
LBB63_55:                               ##   in Loop: Header=BB63_15 Depth=1
	jmp	LBB63_97
LBB63_56:                               ##   in Loop: Header=BB63_15 Depth=1
	movq	-1728(%rbp), %rdi
	leaq	L_.str.49(%rip), %rsi
	callq	_strcmp
	cmpl	$0, %eax
	jne	LBB63_62
## %bb.57:                              ##   in Loop: Header=BB63_15 Depth=1
	movl	-1656(%rbp), %edi
	movq	-1664(%rbp), %rsi
	movl	-1684(%rbp), %eax
	incl	%eax
	movl	%eax, -1684(%rbp)
	movl	%eax, %edx
	callq	_cmdline_option_value
	movq	%rax, %rdi
	callq	_integerValue
                                        ## kill: def $eax killed $eax killed $rax
	movl	%eax, -1756(%rbp)
	movl	-1756(%rbp), %eax
	testl	%eax, %eax
	movl	%eax, -1868(%rbp)       ## 4-byte Spill
	je	LBB63_58
	jmp	LBB63_329
LBB63_329:                              ##   in Loop: Header=BB63_15 Depth=1
	movl	-1868(%rbp), %eax       ## 4-byte Reload
	subl	$2, %eax
	je	LBB63_59
	jmp	LBB63_60
LBB63_58:                               ##   in Loop: Header=BB63_15 Depth=1
	movl	$1, %edi
	movb	$0, %al
	callq	_sqlite3_config
	jmp	LBB63_61
LBB63_59:                               ##   in Loop: Header=BB63_15 Depth=1
	movl	$2, %edi
	movb	$0, %al
	callq	_sqlite3_config
	jmp	LBB63_61
LBB63_60:                               ##   in Loop: Header=BB63_15 Depth=1
	movl	$3, %edi
	movb	$0, %al
	callq	_sqlite3_config
LBB63_61:                               ##   in Loop: Header=BB63_15 Depth=1
	jmp	LBB63_96
LBB63_62:                               ##   in Loop: Header=BB63_15 Depth=1
	movq	-1728(%rbp), %rdi
	leaq	L_.str.50(%rip), %rsi
	callq	_strcmp
	cmpl	$0, %eax
	jne	LBB63_64
## %bb.63:                              ##   in Loop: Header=BB63_15 Depth=1
	movl	-1656(%rbp), %edi
	movq	-1664(%rbp), %rsi
	movl	-1684(%rbp), %eax
	addl	$1, %eax
	movl	%eax, -1684(%rbp)
	movl	%eax, %edx
	callq	_cmdline_option_value
	movq	%rax, %rdi
	callq	_integerValue
	movq	%rax, -1768(%rbp)
	movq	-1768(%rbp), %rsi
	movq	-1768(%rbp), %rdx
	movl	$22, %edi
	movb	$0, %al
	callq	_sqlite3_config
	jmp	LBB63_95
LBB63_64:                               ##   in Loop: Header=BB63_15 Depth=1
	movq	-1728(%rbp), %rdi
	leaq	L_.str.51(%rip), %rsi
	callq	_strcmp
	cmpl	$0, %eax
	jne	LBB63_66
## %bb.65:                              ##   in Loop: Header=BB63_15 Depth=1
	movl	-1656(%rbp), %edi
	movq	-1664(%rbp), %rsi
	movl	-1684(%rbp), %eax
	addl	$1, %eax
	movl	%eax, -1684(%rbp)
	movl	%eax, %edx
	callq	_cmdline_option_value
	movq	%rax, -1720(%rbp)
	jmp	LBB63_94
LBB63_66:                               ##   in Loop: Header=BB63_15 Depth=1
	movq	-1728(%rbp), %rdi
	leaq	L_.str.52(%rip), %rsi
	callq	_strcmp
	cmpl	$0, %eax
	jne	LBB63_68
## %bb.67:                              ##   in Loop: Header=BB63_15 Depth=1
	movb	$2, -1635(%rbp)
	jmp	LBB63_93
LBB63_68:                               ##   in Loop: Header=BB63_15 Depth=1
	movq	-1728(%rbp), %rdi
	leaq	L_.str.53(%rip), %rsi
	callq	_strcmp
	cmpl	$0, %eax
	jne	LBB63_70
## %bb.69:                              ##   in Loop: Header=BB63_15 Depth=1
	movb	$5, -1635(%rbp)
	jmp	LBB63_92
LBB63_70:                               ##   in Loop: Header=BB63_15 Depth=1
	movq	-1728(%rbp), %rdi
	leaq	L_.str.54(%rip), %rsi
	callq	_strcmp
	cmpl	$0, %eax
	jne	LBB63_73
## %bb.71:                              ##   in Loop: Header=BB63_15 Depth=1
	movl	-1684(%rbp), %eax
	addl	$1, %eax
	cmpl	-1656(%rbp), %eax
	jge	LBB63_73
## %bb.72:                              ##   in Loop: Header=BB63_15 Depth=1
	movq	-1664(%rbp), %rax
	movl	-1684(%rbp), %ecx
	addl	$1, %ecx
	movl	%ecx, -1684(%rbp)
	movslq	%ecx, %rdx
	movq	(%rax,%rdx,8), %rdi
	callq	_integerValue
	movq	%rax, -1512(%rbp)
	jmp	LBB63_91
LBB63_73:                               ##   in Loop: Header=BB63_15 Depth=1
	movq	-1728(%rbp), %rdi
	leaq	L_.str.55(%rip), %rsi
	callq	_strcmp
	cmpl	$0, %eax
	jne	LBB63_75
## %bb.74:                              ##   in Loop: Header=BB63_15 Depth=1
	movb	$4, -1635(%rbp)
	jmp	LBB63_90
LBB63_75:                               ##   in Loop: Header=BB63_15 Depth=1
	movq	-1728(%rbp), %rdi
	leaq	L_.str.56(%rip), %rsi
	callq	_strcmp
	cmpl	$0, %eax
	jne	LBB63_77
## %bb.76:                              ##   in Loop: Header=BB63_15 Depth=1
	movl	$16777216, -1596(%rbp)  ## imm = 0x1000000
	jmp	LBB63_89
LBB63_77:                               ##   in Loop: Header=BB63_15 Depth=1
	movq	-1728(%rbp), %rdi
	leaq	L_.str.57(%rip), %rsi
	callq	_strcmp
	cmpl	$0, %eax
	jne	LBB63_79
## %bb.78:                              ##   in Loop: Header=BB63_15 Depth=1
	movq	___stderrp@GOTPCREL(%rip), %rax
	movq	(%rax), %rdi
	callq	_sqlite3MemTraceActivate
	jmp	LBB63_88
LBB63_79:                               ##   in Loop: Header=BB63_15 Depth=1
	movq	-1728(%rbp), %rdi
	leaq	L_.str.58(%rip), %rsi
	callq	_strcmp
	cmpl	$0, %eax
	jne	LBB63_81
## %bb.80:                              ##   in Loop: Header=BB63_15 Depth=1
	movl	$1, _bail_on_error(%rip)
	jmp	LBB63_87
LBB63_81:                               ##   in Loop: Header=BB63_15 Depth=1
	movq	-1728(%rbp), %rdi
	leaq	L_.str.59(%rip), %rsi
	callq	_strcmp
	cmpl	$0, %eax
	jne	LBB63_83
## %bb.82:                              ##   in Loop: Header=BB63_15 Depth=1
	movq	-152(%rbp), %rdi
	callq	_free
	movq	-1664(%rbp), %rax
	movl	-1684(%rbp), %ecx
	addl	$1, %ecx
	movl	%ecx, -1684(%rbp)
	movslq	%ecx, %rdx
	movq	(%rax,%rdx,8), %rdi
	callq	_strdup
	movq	%rax, -152(%rbp)
	jmp	LBB63_86
LBB63_83:                               ##   in Loop: Header=BB63_15 Depth=1
	movq	-1728(%rbp), %rdi
	leaq	L_.str.60(%rip), %rsi
	callq	_strcmp
	cmpl	$0, %eax
	jne	LBB63_85
## %bb.84:                              ##   in Loop: Header=BB63_15 Depth=1
	jmp	LBB63_85
LBB63_85:                               ##   in Loop: Header=BB63_15 Depth=1
	jmp	LBB63_86
LBB63_86:                               ##   in Loop: Header=BB63_15 Depth=1
	jmp	LBB63_87
LBB63_87:                               ##   in Loop: Header=BB63_15 Depth=1
	jmp	LBB63_88
LBB63_88:                               ##   in Loop: Header=BB63_15 Depth=1
	jmp	LBB63_89
LBB63_89:                               ##   in Loop: Header=BB63_15 Depth=1
	jmp	LBB63_90
LBB63_90:                               ##   in Loop: Header=BB63_15 Depth=1
	jmp	LBB63_91
LBB63_91:                               ##   in Loop: Header=BB63_15 Depth=1
	jmp	LBB63_92
LBB63_92:                               ##   in Loop: Header=BB63_15 Depth=1
	jmp	LBB63_93
LBB63_93:                               ##   in Loop: Header=BB63_15 Depth=1
	jmp	LBB63_94
LBB63_94:                               ##   in Loop: Header=BB63_15 Depth=1
	jmp	LBB63_95
LBB63_95:                               ##   in Loop: Header=BB63_15 Depth=1
	jmp	LBB63_96
LBB63_96:                               ##   in Loop: Header=BB63_15 Depth=1
	jmp	LBB63_97
LBB63_97:                               ##   in Loop: Header=BB63_15 Depth=1
	jmp	LBB63_98
LBB63_98:                               ##   in Loop: Header=BB63_15 Depth=1
	jmp	LBB63_99
LBB63_99:                               ##   in Loop: Header=BB63_15 Depth=1
	jmp	LBB63_100
LBB63_100:                              ##   in Loop: Header=BB63_15 Depth=1
	jmp	LBB63_101
LBB63_101:                              ##   in Loop: Header=BB63_15 Depth=1
	jmp	LBB63_102
LBB63_102:                              ##   in Loop: Header=BB63_15 Depth=1
	jmp	LBB63_103
LBB63_103:                              ##   in Loop: Header=BB63_15 Depth=1
	movl	-1684(%rbp), %eax
	addl	$1, %eax
	movl	%eax, -1684(%rbp)
	jmp	LBB63_15
LBB63_104:
	callq	_verify_uninitialized
	callq	_sqlite3_initialize
	cmpq	$0, -1720(%rbp)
	je	LBB63_109
## %bb.105:
	movq	-1720(%rbp), %rdi
	callq	_sqlite3_vfs_find
	movq	%rax, -1776(%rbp)
	cmpq	$0, -1776(%rbp)
	je	LBB63_107
## %bb.106:
	movq	-1776(%rbp), %rdi
	movl	$1, %esi
	callq	_sqlite3_vfs_register
	jmp	LBB63_108
LBB63_107:
	movq	___stderrp@GOTPCREL(%rip), %rax
	movq	(%rax), %rdi
	movq	-1664(%rbp), %rax
	movslq	-1684(%rbp), %rcx
	movq	(%rax,%rcx,8), %rdx
	leaq	L_.str.61(%rip), %rsi
	xorl	%r8d, %r8d
                                        ## kill: def $r8b killed $r8b killed $r8d
	movb	%r8b, %al
	callq	_fprintf
	movl	$1, %edi
	movl	%eax, -1872(%rbp)       ## 4-byte Spill
	callq	_exit
LBB63_108:
	jmp	LBB63_109
LBB63_109:
	movq	-176(%rbp), %rax
	cmpq	$0, 8(%rax)
	jne	LBB63_111
## %bb.110:
	movq	-176(%rbp), %rax
	leaq	L_.str.22(%rip), %rcx
	movq	%rcx, 8(%rax)
	cmpl	$1, -1656(%rbp)
	sete	%dl
	andb	$1, %dl
	movzbl	%dl, %esi
	movl	%esi, -1692(%rbp)
LBB63_111:
	xorl	%eax, %eax
	movl	%eax, %ecx
	movq	___stdoutp@GOTPCREL(%rip), %rdx
	movq	(%rdx), %rdx
	movq	%rdx, -1584(%rbp)
	movq	%rcx, %rdi
	movq	%rcx, %rsi
	movq	%rcx, %rdx
	callq	_sqlite3_appendvfs_init
	xorl	%esi, %esi
	movq	-176(%rbp), %rcx
	movq	8(%rcx), %rdi
	movl	%eax, -1876(%rbp)       ## 4-byte Spill
	callq	_access
	cmpl	$0, %eax
	jne	LBB63_113
## %bb.112:
	xorl	%esi, %esi
	leaq	-1648(%rbp), %rdi
	callq	_open_db
LBB63_113:
	movq	-1680(%rbp), %rsi
	leaq	-1648(%rbp), %rdi
	callq	_process_sqliterc
	movl	$1, -1684(%rbp)
LBB63_114:                              ## =>This Inner Loop Header: Depth=1
	movl	-1684(%rbp), %eax
	cmpl	-1656(%rbp), %eax
	jge	LBB63_277
## %bb.115:                             ##   in Loop: Header=BB63_114 Depth=1
	movq	-1664(%rbp), %rax
	movslq	-1684(%rbp), %rcx
	movq	(%rax,%rcx,8), %rax
	movq	%rax, -1784(%rbp)
	movq	-1784(%rbp), %rax
	movsbl	(%rax), %edx
	cmpl	$45, %edx
	je	LBB63_117
## %bb.116:                             ##   in Loop: Header=BB63_114 Depth=1
	jmp	LBB63_276
LBB63_117:                              ##   in Loop: Header=BB63_114 Depth=1
	movq	-1784(%rbp), %rax
	movsbl	1(%rax), %ecx
	cmpl	$45, %ecx
	jne	LBB63_119
## %bb.118:                             ##   in Loop: Header=BB63_114 Depth=1
	movq	-1784(%rbp), %rax
	addq	$1, %rax
	movq	%rax, -1784(%rbp)
LBB63_119:                              ##   in Loop: Header=BB63_114 Depth=1
	movq	-1784(%rbp), %rdi
	leaq	L_.str.44(%rip), %rsi
	callq	_strcmp
	cmpl	$0, %eax
	jne	LBB63_121
## %bb.120:                             ##   in Loop: Header=BB63_114 Depth=1
	movl	-1684(%rbp), %eax
	addl	$1, %eax
	movl	%eax, -1684(%rbp)
	jmp	LBB63_275
LBB63_121:                              ##   in Loop: Header=BB63_114 Depth=1
	movq	-1784(%rbp), %rdi
	leaq	L_.str.62(%rip), %rsi
	callq	_strcmp
	cmpl	$0, %eax
	jne	LBB63_123
## %bb.122:                             ##   in Loop: Header=BB63_114 Depth=1
	movl	$4, -1564(%rbp)
	jmp	LBB63_274
LBB63_123:                              ##   in Loop: Header=BB63_114 Depth=1
	movq	-1784(%rbp), %rdi
	leaq	L_.str.63(%rip), %rsi
	callq	_strcmp
	cmpl	$0, %eax
	jne	LBB63_125
## %bb.124:                             ##   in Loop: Header=BB63_114 Depth=1
	movl	$2, -1564(%rbp)
	jmp	LBB63_273
LBB63_125:                              ##   in Loop: Header=BB63_114 Depth=1
	movq	-1784(%rbp), %rdi
	leaq	L_.str.64(%rip), %rsi
	callq	_strcmp
	cmpl	$0, %eax
	jne	LBB63_127
## %bb.126:                             ##   in Loop: Header=BB63_114 Depth=1
	movl	$6, -1564(%rbp)
	leaq	-1648(%rbp), %rax
	addq	$190, %rax
	movl	$20, %edi
	movq	%rax, %rsi
	leaq	L_.str.65(%rip), %rdx
	movb	$0, %al
	callq	_sqlite3_snprintf
	leaq	-1648(%rbp), %rcx
	addq	$210, %rcx
	movl	$20, %edi
	movq	%rcx, %rsi
	leaq	L_.str.66(%rip), %rdx
	movq	%rax, -1888(%rbp)       ## 8-byte Spill
	movb	$0, %al
	callq	_sqlite3_snprintf
	jmp	LBB63_272
LBB63_127:                              ##   in Loop: Header=BB63_114 Depth=1
	movq	-1784(%rbp), %rdi
	leaq	L_.str.67(%rip), %rsi
	callq	_strcmp
	cmpl	$0, %eax
	jne	LBB63_129
## %bb.128:                             ##   in Loop: Header=BB63_114 Depth=1
	movl	$0, -1564(%rbp)
	jmp	LBB63_271
LBB63_129:                              ##   in Loop: Header=BB63_114 Depth=1
	movq	-1784(%rbp), %rdi
	leaq	L_.str.68(%rip), %rsi
	callq	_strcmp
	cmpl	$0, %eax
	jne	LBB63_131
## %bb.130:                             ##   in Loop: Header=BB63_114 Depth=1
	movl	$1, -1564(%rbp)
	jmp	LBB63_270
LBB63_131:                              ##   in Loop: Header=BB63_114 Depth=1
	movq	-1784(%rbp), %rdi
	leaq	L_.str.69(%rip), %rsi
	callq	_strcmp
	cmpl	$0, %eax
	jne	LBB63_133
## %bb.132:                             ##   in Loop: Header=BB63_114 Depth=1
	movl	$13, -1564(%rbp)
	jmp	LBB63_269
LBB63_133:                              ##   in Loop: Header=BB63_114 Depth=1
	movq	-1784(%rbp), %rdi
	leaq	L_.str.70(%rip), %rsi
	callq	_strcmp
	cmpl	$0, %eax
	jne	LBB63_135
## %bb.134:                             ##   in Loop: Header=BB63_114 Depth=1
	movl	$14, -1564(%rbp)
	jmp	LBB63_268
LBB63_135:                              ##   in Loop: Header=BB63_114 Depth=1
	movq	-1784(%rbp), %rdi
	leaq	L_.str.71(%rip), %rsi
	callq	_strcmp
	cmpl	$0, %eax
	jne	LBB63_137
## %bb.136:                             ##   in Loop: Header=BB63_114 Depth=1
	movl	$15, -1564(%rbp)
	jmp	LBB63_267
LBB63_137:                              ##   in Loop: Header=BB63_114 Depth=1
	movq	-1784(%rbp), %rdi
	leaq	L_.str.72(%rip), %rsi
	callq	_strcmp
	cmpl	$0, %eax
	jne	LBB63_139
## %bb.138:                             ##   in Loop: Header=BB63_114 Depth=1
	movl	$16, -1564(%rbp)
	jmp	LBB63_266
LBB63_139:                              ##   in Loop: Header=BB63_114 Depth=1
	movq	-1784(%rbp), %rdi
	leaq	L_.str.73(%rip), %rsi
	callq	_strcmp
	cmpl	$0, %eax
	jne	LBB63_141
## %bb.140:                             ##   in Loop: Header=BB63_114 Depth=1
	movl	$8, -1564(%rbp)
	movw	L_.str.65(%rip), %ax
	movw	%ax, -1458(%rbp)
	jmp	LBB63_265
LBB63_141:                              ##   in Loop: Header=BB63_114 Depth=1
	movq	-1784(%rbp), %rdi
	leaq	L_.str.52(%rip), %rsi
	callq	_strcmp
	cmpl	$0, %eax
	jne	LBB63_143
## %bb.142:                             ##   in Loop: Header=BB63_114 Depth=1
	movb	$2, -1635(%rbp)
	jmp	LBB63_264
LBB63_143:                              ##   in Loop: Header=BB63_114 Depth=1
	movq	-1784(%rbp), %rdi
	leaq	L_.str.53(%rip), %rsi
	callq	_strcmp
	cmpl	$0, %eax
	jne	LBB63_145
## %bb.144:                             ##   in Loop: Header=BB63_114 Depth=1
	movb	$5, -1635(%rbp)
	jmp	LBB63_263
LBB63_145:                              ##   in Loop: Header=BB63_114 Depth=1
	movq	-1784(%rbp), %rdi
	leaq	L_.str.54(%rip), %rsi
	callq	_strcmp
	cmpl	$0, %eax
	jne	LBB63_148
## %bb.146:                             ##   in Loop: Header=BB63_114 Depth=1
	movl	-1684(%rbp), %eax
	addl	$1, %eax
	cmpl	-1656(%rbp), %eax
	jge	LBB63_148
## %bb.147:                             ##   in Loop: Header=BB63_114 Depth=1
	movq	-1664(%rbp), %rax
	movl	-1684(%rbp), %ecx
	addl	$1, %ecx
	movl	%ecx, -1684(%rbp)
	movslq	%ecx, %rdx
	movq	(%rax,%rdx,8), %rdi
	callq	_integerValue
	movq	%rax, -1512(%rbp)
	jmp	LBB63_262
LBB63_148:                              ##   in Loop: Header=BB63_114 Depth=1
	movq	-1784(%rbp), %rdi
	leaq	L_.str.55(%rip), %rsi
	callq	_strcmp
	cmpl	$0, %eax
	jne	LBB63_150
## %bb.149:                             ##   in Loop: Header=BB63_114 Depth=1
	movb	$4, -1635(%rbp)
	jmp	LBB63_261
LBB63_150:                              ##   in Loop: Header=BB63_114 Depth=1
	movq	-1784(%rbp), %rdi
	leaq	L_.str.56(%rip), %rsi
	callq	_strcmp
	cmpl	$0, %eax
	jne	LBB63_152
## %bb.151:                             ##   in Loop: Header=BB63_114 Depth=1
	movl	-1596(%rbp), %eax
	orl	$16777216, %eax         ## imm = 0x1000000
	movl	%eax, -1596(%rbp)
	jmp	LBB63_260
LBB63_152:                              ##   in Loop: Header=BB63_114 Depth=1
	movq	-1784(%rbp), %rdi
	leaq	L_.str.74(%rip), %rsi
	callq	_strcmp
	cmpl	$0, %eax
	jne	LBB63_154
## %bb.153:                             ##   in Loop: Header=BB63_114 Depth=1
	movl	$10, -1564(%rbp)
	leaq	-1648(%rbp), %rax
	addq	$190, %rax
	movl	$20, %edi
	movq	%rax, %rsi
	leaq	L_.str.75(%rip), %rdx
	movb	$0, %al
	callq	_sqlite3_snprintf
	leaq	-1648(%rbp), %rcx
	addq	$210, %rcx
	movl	$20, %edi
	movq	%rcx, %rsi
	leaq	L_.str.76(%rip), %rdx
	movq	%rax, -1896(%rbp)       ## 8-byte Spill
	movb	$0, %al
	callq	_sqlite3_snprintf
	jmp	LBB63_259
LBB63_154:                              ##   in Loop: Header=BB63_114 Depth=1
	movq	-1784(%rbp), %rdi
	leaq	L_.str.77(%rip), %rsi
	callq	_strcmp
	cmpl	$0, %eax
	jne	LBB63_156
## %bb.155:                             ##   in Loop: Header=BB63_114 Depth=1
	movl	$2, -1564(%rbp)
	leaq	-1648(%rbp), %rax
	addq	$190, %rax
	movl	$20, %edi
	movq	%rax, %rsi
	leaq	L_.str.78(%rip), %rdx
	movb	$0, %al
	callq	_sqlite3_snprintf
	leaq	-1648(%rbp), %rcx
	addq	$210, %rcx
	movl	$20, %edi
	movq	%rcx, %rsi
	leaq	L_.str.66(%rip), %rdx
	movq	%rax, -1904(%rbp)       ## 8-byte Spill
	movb	$0, %al
	callq	_sqlite3_snprintf
	jmp	LBB63_258
LBB63_156:                              ##   in Loop: Header=BB63_114 Depth=1
	movq	-1784(%rbp), %rdi
	leaq	L_.str.40(%rip), %rsi
	callq	_strcmp
	cmpl	$0, %eax
	jne	LBB63_158
## %bb.157:                             ##   in Loop: Header=BB63_114 Depth=1
	leaq	-1648(%rbp), %rax
	addq	$190, %rax
	movl	-1656(%rbp), %edi
	movq	-1664(%rbp), %rsi
	movl	-1684(%rbp), %ecx
	addl	$1, %ecx
	movl	%ecx, -1684(%rbp)
	movl	%ecx, %edx
	movq	%rax, -1912(%rbp)       ## 8-byte Spill
	callq	_cmdline_option_value
	movl	$20, %edi
	movq	-1912(%rbp), %rsi       ## 8-byte Reload
	leaq	L_.str.79(%rip), %rdx
	movq	%rax, %rcx
	movb	$0, %al
	callq	_sqlite3_snprintf
	jmp	LBB63_257
LBB63_158:                              ##   in Loop: Header=BB63_114 Depth=1
	movq	-1784(%rbp), %rdi
	leaq	L_.str.42(%rip), %rsi
	callq	_strcmp
	cmpl	$0, %eax
	jne	LBB63_160
## %bb.159:                             ##   in Loop: Header=BB63_114 Depth=1
	leaq	-1648(%rbp), %rax
	addq	$210, %rax
	movl	-1656(%rbp), %edi
	movq	-1664(%rbp), %rsi
	movl	-1684(%rbp), %ecx
	addl	$1, %ecx
	movl	%ecx, -1684(%rbp)
	movl	%ecx, %edx
	movq	%rax, -1920(%rbp)       ## 8-byte Spill
	callq	_cmdline_option_value
	movl	$20, %edi
	movq	-1920(%rbp), %rsi       ## 8-byte Reload
	leaq	L_.str.79(%rip), %rdx
	movq	%rax, %rcx
	movb	$0, %al
	callq	_sqlite3_snprintf
	jmp	LBB63_256
LBB63_160:                              ##   in Loop: Header=BB63_114 Depth=1
	movq	-1784(%rbp), %rdi
	leaq	L_.str.41(%rip), %rsi
	callq	_strcmp
	cmpl	$0, %eax
	jne	LBB63_162
## %bb.161:                             ##   in Loop: Header=BB63_114 Depth=1
	leaq	-1648(%rbp), %rax
	addq	$292, %rax              ## imm = 0x124
	movl	-1656(%rbp), %edi
	movq	-1664(%rbp), %rsi
	movl	-1684(%rbp), %ecx
	addl	$1, %ecx
	movl	%ecx, -1684(%rbp)
	movl	%ecx, %edx
	movq	%rax, -1928(%rbp)       ## 8-byte Spill
	callq	_cmdline_option_value
	movl	$20, %edi
	movq	-1928(%rbp), %rsi       ## 8-byte Reload
	leaq	L_.str.79(%rip), %rdx
	movq	%rax, %rcx
	movb	$0, %al
	callq	_sqlite3_snprintf
	jmp	LBB63_255
LBB63_162:                              ##   in Loop: Header=BB63_114 Depth=1
	movq	-1784(%rbp), %rdi
	leaq	L_.str.80(%rip), %rsi
	callq	_strcmp
	cmpl	$0, %eax
	jne	LBB63_164
## %bb.163:                             ##   in Loop: Header=BB63_114 Depth=1
	movl	$1, -1544(%rbp)
	movl	-1524(%rbp), %eax
	orl	$128, %eax
	movl	%eax, -1524(%rbp)
	jmp	LBB63_254
LBB63_164:                              ##   in Loop: Header=BB63_114 Depth=1
	movq	-1784(%rbp), %rdi
	leaq	L_.str.81(%rip), %rsi
	callq	_strcmp
	cmpl	$0, %eax
	jne	LBB63_166
## %bb.165:                             ##   in Loop: Header=BB63_114 Depth=1
	movl	$0, -1544(%rbp)
	movl	-1524(%rbp), %eax
	orl	$128, %eax
	movl	%eax, -1524(%rbp)
	jmp	LBB63_253
LBB63_166:                              ##   in Loop: Header=BB63_114 Depth=1
	movq	-1784(%rbp), %rdi
	leaq	L_.str.82(%rip), %rsi
	callq	_strcmp
	cmpl	$0, %eax
	jne	LBB63_168
## %bb.167:                             ##   in Loop: Header=BB63_114 Depth=1
	movl	-1524(%rbp), %eax
	orl	$64, %eax
	movl	%eax, -1524(%rbp)
	jmp	LBB63_252
LBB63_168:                              ##   in Loop: Header=BB63_114 Depth=1
	movq	-1784(%rbp), %rdi
	leaq	L_.str.83(%rip), %rsi
	callq	_strcmp
	cmpl	$0, %eax
	jne	LBB63_170
## %bb.169:                             ##   in Loop: Header=BB63_114 Depth=1
	movb	$1, -1639(%rbp)
	jmp	LBB63_251
LBB63_170:                              ##   in Loop: Header=BB63_114 Depth=1
	movq	-1784(%rbp), %rdi
	leaq	L_.str.84(%rip), %rsi
	callq	_strcmp
	cmpl	$0, %eax
	jne	LBB63_172
## %bb.171:                             ##   in Loop: Header=BB63_114 Depth=1
	movb	$3, -1639(%rbp)
	jmp	LBB63_250
LBB63_172:                              ##   in Loop: Header=BB63_114 Depth=1
	movq	-1784(%rbp), %rdi
	leaq	L_.str.85(%rip), %rsi
	callq	_strcmp
	cmpl	$0, %eax
	jne	LBB63_174
## %bb.173:                             ##   in Loop: Header=BB63_114 Depth=1
	movl	$1, -1620(%rbp)
	jmp	LBB63_249
LBB63_174:                              ##   in Loop: Header=BB63_114 Depth=1
	movq	-1784(%rbp), %rdi
	leaq	L_.str.86(%rip), %rsi
	callq	_strcmp
	cmpl	$0, %eax
	jne	LBB63_176
## %bb.175:                             ##   in Loop: Header=BB63_114 Depth=1
	movb	$1, -1636(%rbp)
	jmp	LBB63_248
LBB63_176:                              ##   in Loop: Header=BB63_114 Depth=1
	movq	-1784(%rbp), %rdi
	leaq	L_.str.87(%rip), %rsi
	callq	_strcmp
	cmpl	$0, %eax
	jne	LBB63_178
## %bb.177:                             ##   in Loop: Header=BB63_114 Depth=1
	movl	-1524(%rbp), %eax
	orl	$4, %eax
	movl	%eax, -1524(%rbp)
	jmp	LBB63_247
LBB63_178:                              ##   in Loop: Header=BB63_114 Depth=1
	movq	-1784(%rbp), %rdi
	leaq	L_.str.58(%rip), %rsi
	callq	_strcmp
	cmpl	$0, %eax
	jne	LBB63_180
## %bb.179:                             ##   in Loop: Header=BB63_114 Depth=1
	jmp	LBB63_246
LBB63_180:                              ##   in Loop: Header=BB63_114 Depth=1
	movq	-1784(%rbp), %rdi
	leaq	L_.str.88(%rip), %rsi
	callq	_strcmp
	cmpl	$0, %eax
	jne	LBB63_182
## %bb.181:
	callq	_sqlite3_libversion
	movq	%rax, -1936(%rbp)       ## 8-byte Spill
	callq	_sqlite3_sourceid
	leaq	L_.str.89(%rip), %rdi
	movq	-1936(%rbp), %rsi       ## 8-byte Reload
	movq	%rax, %rdx
	movb	$0, %al
	callq	_printf
	movl	$0, -1652(%rbp)
	jmp	LBB63_326
LBB63_182:                              ##   in Loop: Header=BB63_114 Depth=1
	movq	-1784(%rbp), %rdi
	leaq	L_.str.90(%rip), %rsi
	callq	_strcmp
	cmpl	$0, %eax
	jne	LBB63_184
## %bb.183:                             ##   in Loop: Header=BB63_114 Depth=1
	movl	$1, _stdin_is_interactive(%rip)
	jmp	LBB63_244
LBB63_184:                              ##   in Loop: Header=BB63_114 Depth=1
	movq	-1784(%rbp), %rdi
	leaq	L_.str.45(%rip), %rsi
	callq	_strcmp
	cmpl	$0, %eax
	jne	LBB63_186
## %bb.185:                             ##   in Loop: Header=BB63_114 Depth=1
	movl	$0, _stdin_is_interactive(%rip)
	jmp	LBB63_243
LBB63_186:                              ##   in Loop: Header=BB63_114 Depth=1
	movq	-1784(%rbp), %rdi
	leaq	L_.str.46(%rip), %rsi
	callq	_strcmp
	cmpl	$0, %eax
	jne	LBB63_188
## %bb.187:                             ##   in Loop: Header=BB63_114 Depth=1
	movl	-1684(%rbp), %eax
	addl	$1, %eax
	movl	%eax, -1684(%rbp)
	jmp	LBB63_242
LBB63_188:                              ##   in Loop: Header=BB63_114 Depth=1
	movq	-1784(%rbp), %rdi
	leaq	L_.str.47(%rip), %rsi
	callq	_strcmp
	cmpl	$0, %eax
	jne	LBB63_190
## %bb.189:                             ##   in Loop: Header=BB63_114 Depth=1
	movl	-1684(%rbp), %eax
	addl	$2, %eax
	movl	%eax, -1684(%rbp)
	jmp	LBB63_241
LBB63_190:                              ##   in Loop: Header=BB63_114 Depth=1
	movq	-1784(%rbp), %rdi
	leaq	L_.str.48(%rip), %rsi
	callq	_strcmp
	cmpl	$0, %eax
	jne	LBB63_192
## %bb.191:                             ##   in Loop: Header=BB63_114 Depth=1
	movl	-1684(%rbp), %eax
	addl	$2, %eax
	movl	%eax, -1684(%rbp)
	jmp	LBB63_240
LBB63_192:                              ##   in Loop: Header=BB63_114 Depth=1
	movq	-1784(%rbp), %rdi
	leaq	L_.str.49(%rip), %rsi
	callq	_strcmp
	cmpl	$0, %eax
	jne	LBB63_194
## %bb.193:                             ##   in Loop: Header=BB63_114 Depth=1
	movl	-1684(%rbp), %eax
	addl	$2, %eax
	movl	%eax, -1684(%rbp)
	jmp	LBB63_239
LBB63_194:                              ##   in Loop: Header=BB63_114 Depth=1
	movq	-1784(%rbp), %rdi
	leaq	L_.str.59(%rip), %rsi
	callq	_strcmp
	cmpl	$0, %eax
	jne	LBB63_196
## %bb.195:                             ##   in Loop: Header=BB63_114 Depth=1
	movl	-1684(%rbp), %eax
	addl	$2, %eax
	movl	%eax, -1684(%rbp)
	jmp	LBB63_238
LBB63_196:                              ##   in Loop: Header=BB63_114 Depth=1
	movq	-1784(%rbp), %rdi
	leaq	L_.str.50(%rip), %rsi
	callq	_strcmp
	cmpl	$0, %eax
	jne	LBB63_198
## %bb.197:                             ##   in Loop: Header=BB63_114 Depth=1
	movl	-1684(%rbp), %eax
	addl	$1, %eax
	movl	%eax, -1684(%rbp)
	jmp	LBB63_237
LBB63_198:                              ##   in Loop: Header=BB63_114 Depth=1
	movq	-1784(%rbp), %rdi
	leaq	L_.str.57(%rip), %rsi
	callq	_strcmp
	cmpl	$0, %eax
	jne	LBB63_200
## %bb.199:                             ##   in Loop: Header=BB63_114 Depth=1
	movl	-1684(%rbp), %eax
	addl	$1, %eax
	movl	%eax, -1684(%rbp)
	jmp	LBB63_236
LBB63_200:                              ##   in Loop: Header=BB63_114 Depth=1
	movq	-1784(%rbp), %rdi
	leaq	L_.str.51(%rip), %rsi
	callq	_strcmp
	cmpl	$0, %eax
	jne	LBB63_202
## %bb.201:                             ##   in Loop: Header=BB63_114 Depth=1
	movl	-1684(%rbp), %eax
	addl	$1, %eax
	movl	%eax, -1684(%rbp)
	jmp	LBB63_235
LBB63_202:                              ##   in Loop: Header=BB63_114 Depth=1
	movq	-1784(%rbp), %rdi
	leaq	L_.str.91(%rip), %rsi
	callq	_strcmp
	cmpl	$0, %eax
	jne	LBB63_204
## %bb.203:                             ##   in Loop: Header=BB63_114 Depth=1
	movl	$1, %edi
	callq	_usage
	jmp	LBB63_234
LBB63_204:                              ##   in Loop: Header=BB63_114 Depth=1
	movq	-1784(%rbp), %rdi
	leaq	L_.str.43(%rip), %rsi
	callq	_strcmp
	cmpl	$0, %eax
	jne	LBB63_229
## %bb.205:                             ##   in Loop: Header=BB63_114 Depth=1
	movl	-1684(%rbp), %eax
	movl	-1656(%rbp), %ecx
	subl	$1, %ecx
	cmpl	%ecx, %eax
	jne	LBB63_207
## %bb.206:
	jmp	LBB63_277
LBB63_207:                              ##   in Loop: Header=BB63_114 Depth=1
	movl	-1656(%rbp), %edi
	movq	-1664(%rbp), %rsi
	movl	-1684(%rbp), %eax
	addl	$1, %eax
	movl	%eax, -1684(%rbp)
	movl	%eax, %edx
	callq	_cmdline_option_value
	movq	%rax, -1784(%rbp)
	movq	-1784(%rbp), %rax
	movsbl	(%rax), %ecx
	cmpl	$46, %ecx
	jne	LBB63_215
## %bb.208:                             ##   in Loop: Header=BB63_114 Depth=1
	movq	-1784(%rbp), %rdi
	leaq	-1648(%rbp), %rsi
	callq	_do_meta_command
	movl	%eax, -1688(%rbp)
	cmpl	$0, -1688(%rbp)
	je	LBB63_214
## %bb.209:                             ##   in Loop: Header=BB63_114 Depth=1
	cmpl	$0, _bail_on_error(%rip)
	je	LBB63_214
## %bb.210:
	cmpl	$2, -1688(%rbp)
	jne	LBB63_212
## %bb.211:
	xorl	%eax, %eax
	movl	%eax, -1940(%rbp)       ## 4-byte Spill
	jmp	LBB63_213
LBB63_212:
	movl	-1688(%rbp), %eax
	movl	%eax, -1940(%rbp)       ## 4-byte Spill
LBB63_213:
	movl	-1940(%rbp), %eax       ## 4-byte Reload
	movl	%eax, -1652(%rbp)
	jmp	LBB63_326
LBB63_214:                              ##   in Loop: Header=BB63_114 Depth=1
	jmp	LBB63_228
LBB63_215:                              ##   in Loop: Header=BB63_114 Depth=1
	xorl	%esi, %esi
	leaq	-1648(%rbp), %rdi
	callq	_open_db
	movq	-1784(%rbp), %rsi
	leaq	-1648(%rbp), %rdi
	leaq	-1672(%rbp), %rdx
	callq	_shell_exec
	movl	%eax, -1688(%rbp)
	cmpq	$0, -1672(%rbp)
	je	LBB63_222
## %bb.216:                             ##   in Loop: Header=BB63_114 Depth=1
	movq	___stderrp@GOTPCREL(%rip), %rax
	movq	(%rax), %rdi
	movq	-1672(%rbp), %rdx
	leaq	L_.str.92(%rip), %rsi
	movb	$0, %al
	callq	_fprintf
	cmpl	$0, _bail_on_error(%rip)
	je	LBB63_221
## %bb.217:
	cmpl	$0, -1688(%rbp)
	je	LBB63_219
## %bb.218:
	movl	-1688(%rbp), %eax
	movl	%eax, -1944(%rbp)       ## 4-byte Spill
	jmp	LBB63_220
LBB63_219:
	movl	$1, %eax
	movl	%eax, -1944(%rbp)       ## 4-byte Spill
	jmp	LBB63_220
LBB63_220:
	movl	-1944(%rbp), %eax       ## 4-byte Reload
	movl	%eax, -1652(%rbp)
	jmp	LBB63_326
LBB63_221:                              ##   in Loop: Header=BB63_114 Depth=1
	jmp	LBB63_227
LBB63_222:                              ##   in Loop: Header=BB63_114 Depth=1
	cmpl	$0, -1688(%rbp)
	je	LBB63_226
## %bb.223:                             ##   in Loop: Header=BB63_114 Depth=1
	movq	___stderrp@GOTPCREL(%rip), %rax
	movq	(%rax), %rdi
	movq	-1784(%rbp), %rdx
	leaq	L_.str.93(%rip), %rsi
	movb	$0, %al
	callq	_fprintf
	cmpl	$0, _bail_on_error(%rip)
	je	LBB63_225
## %bb.224:
	movl	-1688(%rbp), %eax
	movl	%eax, -1652(%rbp)
	jmp	LBB63_326
LBB63_225:                              ##   in Loop: Header=BB63_114 Depth=1
	jmp	LBB63_226
LBB63_226:                              ##   in Loop: Header=BB63_114 Depth=1
	jmp	LBB63_227
LBB63_227:                              ##   in Loop: Header=BB63_114 Depth=1
	jmp	LBB63_228
LBB63_228:                              ##   in Loop: Header=BB63_114 Depth=1
	jmp	LBB63_233
LBB63_229:                              ##   in Loop: Header=BB63_114 Depth=1
	movq	-1784(%rbp), %rdi
	leaq	L_.str.60(%rip), %rsi
	callq	_strcmp
	cmpl	$0, %eax
	jne	LBB63_231
## %bb.230:                             ##   in Loop: Header=BB63_114 Depth=1
	movb	$1, -1630(%rbp)
	movb	$1, -1631(%rbp)
	jmp	LBB63_232
LBB63_231:
	movq	___stderrp@GOTPCREL(%rip), %rax
	movq	(%rax), %rdi
	movq	_Argv0(%rip), %rdx
	movq	-1784(%rbp), %rcx
	leaq	L_.str.94(%rip), %rsi
	movb	$0, %al
	callq	_fprintf
	movq	___stderrp@GOTPCREL(%rip), %rcx
	movq	(%rcx), %rdi
	leaq	L_.str.95(%rip), %rsi
	movl	%eax, -1948(%rbp)       ## 4-byte Spill
	movb	$0, %al
	callq	_fprintf
	movl	$1, -1652(%rbp)
	jmp	LBB63_326
LBB63_232:                              ##   in Loop: Header=BB63_114 Depth=1
	jmp	LBB63_233
LBB63_233:                              ##   in Loop: Header=BB63_114 Depth=1
	jmp	LBB63_234
LBB63_234:                              ##   in Loop: Header=BB63_114 Depth=1
	jmp	LBB63_235
LBB63_235:                              ##   in Loop: Header=BB63_114 Depth=1
	jmp	LBB63_236
LBB63_236:                              ##   in Loop: Header=BB63_114 Depth=1
	jmp	LBB63_237
LBB63_237:                              ##   in Loop: Header=BB63_114 Depth=1
	jmp	LBB63_238
LBB63_238:                              ##   in Loop: Header=BB63_114 Depth=1
	jmp	LBB63_239
LBB63_239:                              ##   in Loop: Header=BB63_114 Depth=1
	jmp	LBB63_240
LBB63_240:                              ##   in Loop: Header=BB63_114 Depth=1
	jmp	LBB63_241
LBB63_241:                              ##   in Loop: Header=BB63_114 Depth=1
	jmp	LBB63_242
LBB63_242:                              ##   in Loop: Header=BB63_114 Depth=1
	jmp	LBB63_243
LBB63_243:                              ##   in Loop: Header=BB63_114 Depth=1
	jmp	LBB63_244
LBB63_244:                              ##   in Loop: Header=BB63_114 Depth=1
	jmp	LBB63_245
LBB63_245:                              ##   in Loop: Header=BB63_114 Depth=1
	jmp	LBB63_246
LBB63_246:                              ##   in Loop: Header=BB63_114 Depth=1
	jmp	LBB63_247
LBB63_247:                              ##   in Loop: Header=BB63_114 Depth=1
	jmp	LBB63_248
LBB63_248:                              ##   in Loop: Header=BB63_114 Depth=1
	jmp	LBB63_249
LBB63_249:                              ##   in Loop: Header=BB63_114 Depth=1
	jmp	LBB63_250
LBB63_250:                              ##   in Loop: Header=BB63_114 Depth=1
	jmp	LBB63_251
LBB63_251:                              ##   in Loop: Header=BB63_114 Depth=1
	jmp	LBB63_252
LBB63_252:                              ##   in Loop: Header=BB63_114 Depth=1
	jmp	LBB63_253
LBB63_253:                              ##   in Loop: Header=BB63_114 Depth=1
	jmp	LBB63_254
LBB63_254:                              ##   in Loop: Header=BB63_114 Depth=1
	jmp	LBB63_255
LBB63_255:                              ##   in Loop: Header=BB63_114 Depth=1
	jmp	LBB63_256
LBB63_256:                              ##   in Loop: Header=BB63_114 Depth=1
	jmp	LBB63_257
LBB63_257:                              ##   in Loop: Header=BB63_114 Depth=1
	jmp	LBB63_258
LBB63_258:                              ##   in Loop: Header=BB63_114 Depth=1
	jmp	LBB63_259
LBB63_259:                              ##   in Loop: Header=BB63_114 Depth=1
	jmp	LBB63_260
LBB63_260:                              ##   in Loop: Header=BB63_114 Depth=1
	jmp	LBB63_261
LBB63_261:                              ##   in Loop: Header=BB63_114 Depth=1
	jmp	LBB63_262
LBB63_262:                              ##   in Loop: Header=BB63_114 Depth=1
	jmp	LBB63_263
LBB63_263:                              ##   in Loop: Header=BB63_114 Depth=1
	jmp	LBB63_264
LBB63_264:                              ##   in Loop: Header=BB63_114 Depth=1
	jmp	LBB63_265
LBB63_265:                              ##   in Loop: Header=BB63_114 Depth=1
	jmp	LBB63_266
LBB63_266:                              ##   in Loop: Header=BB63_114 Depth=1
	jmp	LBB63_267
LBB63_267:                              ##   in Loop: Header=BB63_114 Depth=1
	jmp	LBB63_268
LBB63_268:                              ##   in Loop: Header=BB63_114 Depth=1
	jmp	LBB63_269
LBB63_269:                              ##   in Loop: Header=BB63_114 Depth=1
	jmp	LBB63_270
LBB63_270:                              ##   in Loop: Header=BB63_114 Depth=1
	jmp	LBB63_271
LBB63_271:                              ##   in Loop: Header=BB63_114 Depth=1
	jmp	LBB63_272
LBB63_272:                              ##   in Loop: Header=BB63_114 Depth=1
	jmp	LBB63_273
LBB63_273:                              ##   in Loop: Header=BB63_114 Depth=1
	jmp	LBB63_274
LBB63_274:                              ##   in Loop: Header=BB63_114 Depth=1
	jmp	LBB63_275
LBB63_275:                              ##   in Loop: Header=BB63_114 Depth=1
	movl	-1564(%rbp), %eax
	movl	%eax, -1556(%rbp)
LBB63_276:                              ##   in Loop: Header=BB63_114 Depth=1
	movl	-1684(%rbp), %eax
	addl	$1, %eax
	movl	%eax, -1684(%rbp)
	jmp	LBB63_114
LBB63_277:
	cmpl	$0, -1696(%rbp)
	jne	LBB63_300
## %bb.278:
	movl	$0, -1684(%rbp)
LBB63_279:                              ## =>This Inner Loop Header: Depth=1
	movl	-1684(%rbp), %eax
	cmpl	-1700(%rbp), %eax
	jge	LBB63_299
## %bb.280:                             ##   in Loop: Header=BB63_279 Depth=1
	movq	-1712(%rbp), %rax
	movslq	-1684(%rbp), %rcx
	movq	(%rax,%rcx,8), %rax
	movsbl	(%rax), %edx
	cmpl	$46, %edx
	jne	LBB63_287
## %bb.281:                             ##   in Loop: Header=BB63_279 Depth=1
	movq	-1712(%rbp), %rax
	movslq	-1684(%rbp), %rcx
	movq	(%rax,%rcx,8), %rdi
	leaq	-1648(%rbp), %rsi
	callq	_do_meta_command
	movl	%eax, -1688(%rbp)
	cmpl	$0, -1688(%rbp)
	je	LBB63_286
## %bb.282:
	movq	-1712(%rbp), %rax
	movq	%rax, %rdi
	callq	_free
	cmpl	$2, -1688(%rbp)
	jne	LBB63_284
## %bb.283:
	xorl	%eax, %eax
	movl	%eax, -1952(%rbp)       ## 4-byte Spill
	jmp	LBB63_285
LBB63_284:
	movl	-1688(%rbp), %eax
	movl	%eax, -1952(%rbp)       ## 4-byte Spill
LBB63_285:
	movl	-1952(%rbp), %eax       ## 4-byte Reload
	movl	%eax, -1652(%rbp)
	jmp	LBB63_326
LBB63_286:                              ##   in Loop: Header=BB63_279 Depth=1
	jmp	LBB63_297
LBB63_287:                              ##   in Loop: Header=BB63_279 Depth=1
	xorl	%esi, %esi
	leaq	-1648(%rbp), %rdi
	callq	_open_db
	movq	-1712(%rbp), %rax
	movslq	-1684(%rbp), %rcx
	movq	(%rax,%rcx,8), %rsi
	leaq	-1648(%rbp), %rdi
	leaq	-1672(%rbp), %rdx
	callq	_shell_exec
	movl	%eax, -1688(%rbp)
	cmpq	$0, -1672(%rbp)
	jne	LBB63_289
## %bb.288:                             ##   in Loop: Header=BB63_279 Depth=1
	cmpl	$0, -1688(%rbp)
	je	LBB63_296
LBB63_289:
	cmpq	$0, -1672(%rbp)
	je	LBB63_291
## %bb.290:
	movq	___stderrp@GOTPCREL(%rip), %rax
	movq	(%rax), %rdi
	movq	-1672(%rbp), %rdx
	leaq	L_.str.92(%rip), %rsi
	movb	$0, %al
	callq	_fprintf
	jmp	LBB63_292
LBB63_291:
	movq	___stderrp@GOTPCREL(%rip), %rax
	movq	(%rax), %rdi
	movq	-1712(%rbp), %rax
	movslq	-1684(%rbp), %rcx
	movq	(%rax,%rcx,8), %rdx
	leaq	L_.str.96(%rip), %rsi
	movb	$0, %al
	callq	_fprintf
LBB63_292:
	movq	-1672(%rbp), %rdi
	callq	_sqlite3_free
	movq	-1712(%rbp), %rax
	movq	%rax, %rdi
	callq	_free
	cmpl	$0, -1688(%rbp)
	je	LBB63_294
## %bb.293:
	movl	-1688(%rbp), %eax
	movl	%eax, -1956(%rbp)       ## 4-byte Spill
	jmp	LBB63_295
LBB63_294:
	movl	$1, %eax
	movl	%eax, -1956(%rbp)       ## 4-byte Spill
	jmp	LBB63_295
LBB63_295:
	movl	-1956(%rbp), %eax       ## 4-byte Reload
	movl	%eax, -1652(%rbp)
	jmp	LBB63_326
LBB63_296:                              ##   in Loop: Header=BB63_279 Depth=1
	jmp	LBB63_297
LBB63_297:                              ##   in Loop: Header=BB63_279 Depth=1
	jmp	LBB63_298
LBB63_298:                              ##   in Loop: Header=BB63_279 Depth=1
	movl	-1684(%rbp), %eax
	addl	$1, %eax
	movl	%eax, -1684(%rbp)
	jmp	LBB63_279
LBB63_299:
	jmp	LBB63_317
LBB63_300:
	cmpl	$0, _stdin_is_interactive(%rip)
	je	LBB63_315
## %bb.301:
	callq	_sqlite3_libversion
	movq	%rax, -1968(%rbp)       ## 8-byte Spill
	callq	_sqlite3_sourceid
	leaq	L_.str.97(%rip), %rdi
	movq	-1968(%rbp), %rsi       ## 8-byte Reload
	movq	%rax, %rdx
	movb	$0, %al
	callq	_printf
	cmpl	$0, -1692(%rbp)
	je	LBB63_303
## %bb.302:
	leaq	L_.str.98(%rip), %rdi
	movb	$0, %al
	callq	_printf
	leaq	L_.str.99(%rip), %rdi
	movl	%eax, -1972(%rbp)       ## 4-byte Spill
	callq	_printBold
	leaq	L_.str.100(%rip), %rdi
	movb	$0, %al
	callq	_printf
LBB63_303:
	leaq	L_.str.101(%rip), %rdi
	callq	_getenv
	movq	%rax, -1800(%rbp)
	cmpq	$0, -1800(%rbp)
	je	LBB63_305
## %bb.304:
	movq	-1800(%rbp), %rdi
	callq	_strdup
	movq	%rax, -1800(%rbp)
	jmp	LBB63_310
LBB63_305:
	xorl	%edi, %edi
	callq	_find_home_dir
	movq	%rax, -1792(%rbp)
	cmpq	$0, %rax
	je	LBB63_309
## %bb.306:
	movq	-1792(%rbp), %rdi
	callq	_strlen30
	addl	$20, %eax
	movl	%eax, -1804(%rbp)
	movslq	-1804(%rbp), %rdi
	callq	_malloc
	movq	%rax, -1800(%rbp)
	cmpq	$0, %rax
	je	LBB63_308
## %bb.307:
	movl	-1804(%rbp), %edi
	movq	-1800(%rbp), %rsi
	movq	-1792(%rbp), %rcx
	leaq	L_.str.102(%rip), %rdx
	movb	$0, %al
	callq	_sqlite3_snprintf
LBB63_308:
	jmp	LBB63_309
LBB63_309:
	jmp	LBB63_310
LBB63_310:
	cmpq	$0, -1800(%rbp)
	je	LBB63_312
## %bb.311:
	jmp	LBB63_312
LBB63_312:
	movq	$0, -1592(%rbp)
	leaq	-1648(%rbp), %rdi
	callq	_process_input
	movl	%eax, -1688(%rbp)
	cmpq	$0, -1800(%rbp)
	je	LBB63_314
## %bb.313:
	movq	-1800(%rbp), %rdi
	callq	_free
LBB63_314:
	jmp	LBB63_316
LBB63_315:
	movq	___stdinp@GOTPCREL(%rip), %rax
	movq	(%rax), %rax
	movq	%rax, -1592(%rbp)
	leaq	-1648(%rbp), %rdi
	callq	_process_input
	movl	%eax, -1688(%rbp)
LBB63_316:
	jmp	LBB63_317
LBB63_317:
	movq	-1712(%rbp), %rax
	movq	%rax, %rdi
	callq	_free
	xorl	%ecx, %ecx
	movl	%ecx, %esi
	leaq	-1648(%rbp), %rdi
	callq	_set_table_name
	cmpq	$0, -1648(%rbp)
	je	LBB63_319
## %bb.318:
	movq	-1648(%rbp), %rdi
	callq	_close_db
LBB63_319:
	movl	$0, -1684(%rbp)
LBB63_320:                              ## =>This Inner Loop Header: Depth=1
	cmpl	$5, -1684(%rbp)
	jge	LBB63_325
## %bb.321:                             ##   in Loop: Header=BB63_320 Depth=1
	leaq	-1648(%rbp), %rax
	addq	$1352, %rax             ## imm = 0x548
	movslq	-1684(%rbp), %rcx
	imulq	$24, %rcx, %rcx
	addq	%rcx, %rax
	movq	16(%rax), %rdi
	callq	_sqlite3_free
	leaq	-1648(%rbp), %rax
	addq	$1352, %rax             ## imm = 0x548
	movslq	-1684(%rbp), %rcx
	imulq	$24, %rcx, %rcx
	addq	%rcx, %rax
	cmpq	$0, (%rax)
	je	LBB63_323
## %bb.322:                             ##   in Loop: Header=BB63_320 Depth=1
	leaq	-1648(%rbp), %rax
	addq	$1352, %rax             ## imm = 0x548
	movslq	-1684(%rbp), %rcx
	imulq	$24, %rcx, %rcx
	addq	%rcx, %rax
	movq	(%rax), %rdi
	callq	_close_db
LBB63_323:                              ##   in Loop: Header=BB63_320 Depth=1
	jmp	LBB63_324
LBB63_324:                              ##   in Loop: Header=BB63_320 Depth=1
	movl	-1684(%rbp), %eax
	addl	$1, %eax
	movl	%eax, -1684(%rbp)
	jmp	LBB63_320
LBB63_325:
	movl	$1, %edi
	callq	_find_home_dir
	leaq	-1648(%rbp), %rdi
	movq	%rax, -1984(%rbp)       ## 8-byte Spill
	callq	_output_reset
	movb	$0, -1634(%rbp)
	leaq	-1648(%rbp), %rdi
	callq	_clearTempFile
	movq	-1376(%rbp), %rax
	movq	%rax, %rdi
	callq	_free
	movq	-152(%rbp), %rdi
	callq	_free
	xorl	%esi, %esi
	leaq	-1648(%rbp), %rax
	movq	%rax, %rdi
	movl	$1640, %edx             ## imm = 0x668
	callq	_memset
	movl	-1688(%rbp), %ecx
	movl	%ecx, -1652(%rbp)
LBB63_326:
	movl	-1652(%rbp), %eax
	movq	___stack_chk_guard@GOTPCREL(%rip), %rcx
	movq	(%rcx), %rcx
	movq	-8(%rbp), %rdx
	cmpq	%rdx, %rcx
	movl	%eax, -1988(%rbp)       ## 4-byte Spill
	jne	LBB63_328
## %bb.327:
	movl	-1988(%rbp), %eax       ## 4-byte Reload
	addq	$2000, %rsp             ## imm = 0x7D0
	popq	%rbp
	retq
LBB63_328:
	callq	___stack_chk_fail
	ud2
	.cfi_endproc
                                        ## -- End function
	.p2align	4, 0x90         ## -- Begin function main_init
_main_init:                             ## @main_init
	.cfi_startproc
## %bb.0:
	pushq	%rbp
	.cfi_def_cfa_offset 16
	.cfi_offset %rbp, -16
	movq	%rsp, %rbp
	.cfi_def_cfa_register %rbp
	subq	$64, %rsp
	xorl	%esi, %esi
	movq	$-1, %rcx
	movq	%rdi, -8(%rbp)
	movq	-8(%rbp), %rax
	movq	%rax, %rdi
	movl	$1640, %edx             ## imm = 0x668
	callq	___memset_chk
	movq	$-1, %rcx
	movq	-8(%rbp), %rdx
	movl	$2, 84(%rdx)
	movq	-8(%rbp), %rdx
	movl	$2, 92(%rdx)
	movq	-8(%rbp), %rdx
	movl	$2, 96(%rdx)
	movq	-8(%rbp), %rdx
	movb	$1, 8(%rdx)
	movq	-8(%rbp), %rdx
	addq	$1352, %rdx             ## imm = 0x548
	movq	-8(%rbp), %rdi
	movq	%rdx, 1472(%rdi)
	movq	-8(%rbp), %rdx
	addq	$190, %rdx
	movq	%rdx, %rdi
	leaq	L_.str.222(%rip), %rsi
	movl	$2, %edx
	movq	%rax, -16(%rbp)         ## 8-byte Spill
	callq	___memcpy_chk
	movq	$-1, %rcx
	movq	-8(%rbp), %rdx
	addq	$210, %rdx
	movq	%rdx, %rdi
	leaq	L_.str.66(%rip), %rsi
	movl	$2, %edx
	movq	%rax, -24(%rbp)         ## 8-byte Spill
	callq	___memcpy_chk
	movq	-8(%rbp), %rcx
	movl	$0, 104(%rcx)
	movq	-8(%rbp), %rcx
	movl	$2, 124(%rcx)
	movq	%rax, -32(%rbp)         ## 8-byte Spill
	callq	_verify_uninitialized
	movl	$17, %edi
	movl	$1, %esi
	movb	$0, %al
	callq	_sqlite3_config
	movq	-8(%rbp), %rdx
	movl	$16, %edi
	leaq	_shellLog(%rip), %rsi
	movl	%eax, -36(%rbp)         ## 4-byte Spill
	movb	$0, %al
	callq	_sqlite3_config
	movl	$2, %edi
	movl	%eax, -40(%rbp)         ## 4-byte Spill
	movb	$0, %al
	callq	_sqlite3_config
	movl	$20, %edi
	leaq	_mainPrompt(%rip), %rsi
	leaq	L_.str.223(%rip), %rdx
	movl	%eax, -44(%rbp)         ## 4-byte Spill
	movb	$0, %al
	callq	_sqlite3_snprintf
	movl	$20, %edi
	leaq	_continuePrompt(%rip), %rsi
	leaq	L_.str.224(%rip), %rdx
	movq	%rax, -56(%rbp)         ## 8-byte Spill
	movb	$0, %al
	callq	_sqlite3_snprintf
	addq	$64, %rsp
	popq	%rbp
	retq
	.cfi_endproc
                                        ## -- End function
	.p2align	4, 0x90         ## -- Begin function interrupt_handler
_interrupt_handler:                     ## @interrupt_handler
	.cfi_startproc
## %bb.0:
	pushq	%rbp
	.cfi_def_cfa_offset 16
	.cfi_offset %rbp, -16
	movq	%rsp, %rbp
	.cfi_def_cfa_register %rbp
	subq	$16, %rsp
	movl	%edi, -4(%rbp)
	movl	_seenInterrupt(%rip), %eax
	addl	$1, %eax
	movl	%eax, _seenInterrupt(%rip)
	movl	_seenInterrupt(%rip), %eax
	cmpl	$2, %eax
	jle	LBB65_2
## %bb.1:
	movl	$1, %edi
	callq	_exit
LBB65_2:
	cmpq	$0, _globalDb(%rip)
	je	LBB65_4
## %bb.3:
	movq	_globalDb(%rip), %rdi
	callq	_sqlite3_interrupt
LBB65_4:
	addq	$16, %rsp
	popq	%rbp
	retq
	.cfi_endproc
                                        ## -- End function
	.p2align	4, 0x90         ## -- Begin function verify_uninitialized
_verify_uninitialized:                  ## @verify_uninitialized
	.cfi_startproc
## %bb.0:
	pushq	%rbp
	.cfi_def_cfa_offset 16
	.cfi_offset %rbp, -16
	movq	%rsp, %rbp
	.cfi_def_cfa_register %rbp
	movl	$4294967295, %edi       ## imm = 0xFFFFFFFF
	movb	$0, %al
	callq	_sqlite3_config
	cmpl	$21, %eax
	jne	LBB66_2
## %bb.1:
	movq	___stdoutp@GOTPCREL(%rip), %rax
	movq	(%rax), %rdi
	leaq	L_.str.226(%rip), %rsi
	movb	$0, %al
	callq	_fprintf
LBB66_2:
	popq	%rbp
	retq
	.cfi_endproc
                                        ## -- End function
	.p2align	4, 0x90         ## -- Begin function shell_check_oom
_shell_check_oom:                       ## @shell_check_oom
	.cfi_startproc
## %bb.0:
	pushq	%rbp
	.cfi_def_cfa_offset 16
	.cfi_offset %rbp, -16
	movq	%rsp, %rbp
	.cfi_def_cfa_register %rbp
	subq	$16, %rsp
	movq	%rdi, -8(%rbp)
	cmpq	$0, -8(%rbp)
	jne	LBB67_2
## %bb.1:
	callq	_shell_out_of_memory
LBB67_2:
	addq	$16, %rsp
	popq	%rbp
	retq
	.cfi_endproc
                                        ## -- End function
	.p2align	4, 0x90         ## -- Begin function cmdline_option_value
_cmdline_option_value:                  ## @cmdline_option_value
	.cfi_startproc
## %bb.0:
	pushq	%rbp
	.cfi_def_cfa_offset 16
	.cfi_offset %rbp, -16
	movq	%rsp, %rbp
	.cfi_def_cfa_register %rbp
	subq	$32, %rsp
	movl	%edi, -4(%rbp)
	movq	%rsi, -16(%rbp)
	movl	%edx, -20(%rbp)
	movl	-20(%rbp), %eax
	cmpl	-4(%rbp), %eax
	jne	LBB68_2
## %bb.1:
	movq	___stderrp@GOTPCREL(%rip), %rax
	movq	(%rax), %rdi
	movq	-16(%rbp), %rax
	movq	(%rax), %rdx
	movl	-4(%rbp), %ecx
	decl	%ecx
	movslq	%ecx, %rsi
	movq	(%rax,%rsi,8), %rcx
	leaq	L_.str.228(%rip), %rsi
	xorl	%r8d, %r8d
                                        ## kill: def $r8b killed $r8b killed $r8d
	movb	%r8b, %al
	callq	_fprintf
	movl	$1, %edi
	movl	%eax, -24(%rbp)         ## 4-byte Spill
	callq	_exit
LBB68_2:
	movq	-16(%rbp), %rax
	movslq	-20(%rbp), %rcx
	movq	(%rax,%rcx,8), %rax
	addq	$32, %rsp
	popq	%rbp
	retq
	.cfi_endproc
                                        ## -- End function
	.p2align	4, 0x90         ## -- Begin function integerValue
_integerValue:                          ## @integerValue
	.cfi_startproc
## %bb.0:
	pushq	%rbp
	.cfi_def_cfa_offset 16
	.cfi_offset %rbp, -16
	movq	%rsp, %rbp
	.cfi_def_cfa_register %rbp
	subq	$48, %rsp
	movq	%rdi, -8(%rbp)
	movq	$0, -16(%rbp)
	movl	$0, -24(%rbp)
	movq	-8(%rbp), %rax
	movsbl	(%rax), %ecx
	cmpl	$45, %ecx
	jne	LBB69_2
## %bb.1:
	movl	$1, -24(%rbp)
	movq	-8(%rbp), %rax
	addq	$1, %rax
	movq	%rax, -8(%rbp)
	jmp	LBB69_5
LBB69_2:
	movq	-8(%rbp), %rax
	movsbl	(%rax), %ecx
	cmpl	$43, %ecx
	jne	LBB69_4
## %bb.3:
	movq	-8(%rbp), %rax
	addq	$1, %rax
	movq	%rax, -8(%rbp)
LBB69_4:
	jmp	LBB69_5
LBB69_5:
	movq	-8(%rbp), %rax
	movsbl	(%rax), %ecx
	cmpl	$48, %ecx
	jne	LBB69_11
## %bb.6:
	movq	-8(%rbp), %rax
	movsbl	1(%rax), %ecx
	cmpl	$120, %ecx
	jne	LBB69_11
## %bb.7:
	movq	-8(%rbp), %rax
	addq	$2, %rax
	movq	%rax, -8(%rbp)
LBB69_8:                                ## =>This Inner Loop Header: Depth=1
	movq	-8(%rbp), %rax
	movsbl	(%rax), %edi
	callq	_hexDigitValue
	movl	%eax, -28(%rbp)
	cmpl	$0, %eax
	jl	LBB69_10
## %bb.9:                               ##   in Loop: Header=BB69_8 Depth=1
	movq	-16(%rbp), %rax
	shlq	$4, %rax
	movslq	-28(%rbp), %rcx
	addq	%rcx, %rax
	movq	%rax, -16(%rbp)
	movq	-8(%rbp), %rax
	addq	$1, %rax
	movq	%rax, -8(%rbp)
	jmp	LBB69_8
LBB69_10:
	jmp	LBB69_15
LBB69_11:
	jmp	LBB69_12
LBB69_12:                               ## =>This Inner Loop Header: Depth=1
	movq	-8(%rbp), %rax
	movzbl	(%rax), %edi
	callq	_isdigit
	cmpl	$0, %eax
	je	LBB69_14
## %bb.13:                              ##   in Loop: Header=BB69_12 Depth=1
	imulq	$10, -16(%rbp), %rax
	movq	-8(%rbp), %rcx
	movsbq	(%rcx), %rcx
	addq	%rcx, %rax
	subq	$48, %rax
	movq	%rax, -16(%rbp)
	movq	-8(%rbp), %rax
	addq	$1, %rax
	movq	%rax, -8(%rbp)
	jmp	LBB69_12
LBB69_14:
	jmp	LBB69_15
LBB69_15:
	movl	$0, -20(%rbp)
LBB69_16:                               ## =>This Inner Loop Header: Depth=1
	cmpl	$9, -20(%rbp)
	jge	LBB69_21
## %bb.17:                              ##   in Loop: Header=BB69_16 Depth=1
	movslq	-20(%rbp), %rax
	shlq	$4, %rax
	leaq	_integerValue.aMult(%rip), %rcx
	addq	%rax, %rcx
	movq	(%rcx), %rdi
	movq	-8(%rbp), %rsi
	callq	_sqlite3_stricmp
	cmpl	$0, %eax
	jne	LBB69_19
## %bb.18:
	movslq	-20(%rbp), %rax
	shlq	$4, %rax
	leaq	_integerValue.aMult(%rip), %rcx
	addq	%rax, %rcx
	movslq	8(%rcx), %rax
	imulq	-16(%rbp), %rax
	movq	%rax, -16(%rbp)
	jmp	LBB69_21
LBB69_19:                               ##   in Loop: Header=BB69_16 Depth=1
	jmp	LBB69_20
LBB69_20:                               ##   in Loop: Header=BB69_16 Depth=1
	movl	-20(%rbp), %eax
	addl	$1, %eax
	movl	%eax, -20(%rbp)
	jmp	LBB69_16
LBB69_21:
	cmpl	$0, -24(%rbp)
	je	LBB69_23
## %bb.22:
	xorl	%eax, %eax
	movl	%eax, %ecx
	subq	-16(%rbp), %rcx
	movq	%rcx, -40(%rbp)         ## 8-byte Spill
	jmp	LBB69_24
LBB69_23:
	movq	-16(%rbp), %rax
	movq	%rax, -40(%rbp)         ## 8-byte Spill
LBB69_24:
	movq	-40(%rbp), %rax         ## 8-byte Reload
	addq	$48, %rsp
	popq	%rbp
	retq
	.cfi_endproc
                                        ## -- End function
	.p2align	4, 0x90         ## -- Begin function open_db
_open_db:                               ## @open_db
	.cfi_startproc
## %bb.0:
	pushq	%rbp
	.cfi_def_cfa_offset 16
	.cfi_offset %rbp, -16
	movq	%rsp, %rbp
	.cfi_def_cfa_register %rbp
	subq	$176, %rsp
	movq	%rdi, -8(%rbp)
	movl	%esi, -12(%rbp)
	movq	-8(%rbp), %rax
	cmpq	$0, (%rax)
	jne	LBB70_34
## %bb.1:
	movq	-8(%rbp), %rax
	movq	1472(%rax), %rax
	movq	8(%rax), %rax
	movq	%rax, -24(%rbp)
	movq	-8(%rbp), %rax
	movzbl	13(%rax), %ecx
	cmpl	$0, %ecx
	jne	LBB70_7
## %bb.2:
	cmpq	$0, -24(%rbp)
	je	LBB70_4
## %bb.3:
	movq	-24(%rbp), %rax
	movsbl	(%rax), %ecx
	cmpl	$0, %ecx
	jne	LBB70_5
LBB70_4:
	movq	-8(%rbp), %rax
	movb	$1, 13(%rax)
	jmp	LBB70_6
LBB70_5:
	movq	-24(%rbp), %rdi
	movl	-12(%rbp), %eax
	andl	$2, %eax
	cmpl	$0, %eax
	setne	%cl
	andb	$1, %cl
	movzbl	%cl, %esi
	callq	_deduceDatabaseType
                                        ## kill: def $al killed $al killed $eax
	movq	-8(%rbp), %rdx
	movb	%al, 13(%rdx)
LBB70_6:
	jmp	LBB70_7
LBB70_7:
	movq	-8(%rbp), %rax
	movzbl	13(%rax), %ecx
	movl	%ecx, %eax
	movq	%rax, %rdx
	subq	$6, %rdx
	movq	%rax, -56(%rbp)         ## 8-byte Spill
	ja	LBB70_13
## %bb.38:
	leaq	LJTI70_0(%rip), %rax
	movq	-56(%rbp), %rcx         ## 8-byte Reload
	movslq	(%rax,%rcx,4), %rdx
	addq	%rax, %rdx
	jmpq	*%rdx
LBB70_8:
	movq	-24(%rbp), %rdi
	movq	-8(%rbp), %rsi
	movq	-8(%rbp), %rax
	movl	52(%rax), %ecx
	orl	$6, %ecx
	movl	%ecx, %edx
	leaq	L_.str.130(%rip), %rcx
	callq	_sqlite3_open_v2
	jmp	LBB70_13
LBB70_9:
	xorl	%eax, %eax
	movl	%eax, %edi
	movq	-8(%rbp), %rsi
	callq	_sqlite3_open
	jmp	LBB70_13
LBB70_10:
	movq	-8(%rbp), %rsi
	leaq	L_.str.22(%rip), %rdi
	callq	_sqlite3_open
	jmp	LBB70_13
LBB70_11:
	xorl	%eax, %eax
	movl	%eax, %ecx
	movq	-24(%rbp), %rdi
	movq	-8(%rbp), %rsi
	movq	-8(%rbp), %rdx
	movl	52(%rdx), %eax
	orl	$1, %eax
	movl	%eax, %edx
	callq	_sqlite3_open_v2
	jmp	LBB70_13
LBB70_12:
	xorl	%eax, %eax
	movl	%eax, %ecx
	movq	-24(%rbp), %rdi
	movq	-8(%rbp), %rsi
	movq	-8(%rbp), %rdx
	movl	52(%rdx), %eax
	orl	$6, %eax
	movl	%eax, %edx
	callq	_sqlite3_open_v2
LBB70_13:
	movq	-8(%rbp), %rax
	movq	(%rax), %rax
	movq	%rax, _globalDb(%rip)
	movq	-8(%rbp), %rax
	cmpq	$0, (%rax)
	je	LBB70_15
## %bb.14:
	movq	-8(%rbp), %rax
	movq	(%rax), %rdi
	callq	_sqlite3_errcode
	xorl	%ecx, %ecx
	cmpl	%eax, %ecx
	je	LBB70_18
LBB70_15:
	movq	___stderrp@GOTPCREL(%rip), %rax
	movq	(%rax), %rdi
	movq	-24(%rbp), %rdx
	movq	-8(%rbp), %rax
	movq	(%rax), %rax
	movq	%rdi, -64(%rbp)         ## 8-byte Spill
	movq	%rax, %rdi
	movq	%rdx, -72(%rbp)         ## 8-byte Spill
	callq	_sqlite3_errmsg
	movq	-64(%rbp), %rdi         ## 8-byte Reload
	leaq	L_.str.238(%rip), %rsi
	movq	-72(%rbp), %rdx         ## 8-byte Reload
	movq	%rax, %rcx
	movb	$0, %al
	callq	_fprintf
	movl	-12(%rbp), %r8d
	andl	$1, %r8d
	cmpl	$0, %r8d
	je	LBB70_17
## %bb.16:
	movq	-8(%rbp), %rsi
	leaq	L_.str.22(%rip), %rdi
	callq	_sqlite3_open
	jmp	LBB70_37
LBB70_17:
	movl	$1, %edi
	callq	_exit
LBB70_18:
	movq	-8(%rbp), %rax
	movq	(%rax), %rdi
	movl	$1, %esi
	callq	_sqlite3_enable_load_extension
	xorl	%ecx, %ecx
	movl	%ecx, %edx
	movq	-8(%rbp), %rdi
	movq	(%rdi), %rdi
	movq	%rdx, %rsi
	movl	%eax, -76(%rbp)         ## 4-byte Spill
	callq	_sqlite3_fileio_init
	xorl	%ecx, %ecx
	movl	%ecx, %edx
	movq	-8(%rbp), %rsi
	movq	(%rsi), %rdi
	movq	%rdx, %rsi
	movl	%eax, -80(%rbp)         ## 4-byte Spill
	callq	_sqlite3_shathree_init
	xorl	%ecx, %ecx
	movl	%ecx, %edx
	movq	-8(%rbp), %rsi
	movq	(%rsi), %rdi
	movq	%rdx, %rsi
	movl	%eax, -84(%rbp)         ## 4-byte Spill
	callq	_sqlite3_completion_init
	xorl	%ecx, %ecx
	movl	%ecx, %edx
	movq	-8(%rbp), %rsi
	movq	(%rsi), %rdi
	movq	%rdx, %rsi
	movl	%eax, -88(%rbp)         ## 4-byte Spill
	callq	_sqlite3_uint_init
	xorl	%ecx, %ecx
	movl	%ecx, %edx
	movq	-8(%rbp), %rsi
	movq	(%rsi), %rdi
	movq	%rdx, %rsi
	movl	%eax, -92(%rbp)         ## 4-byte Spill
	callq	_sqlite3_decimal_init
	xorl	%ecx, %ecx
	movl	%ecx, %edx
	movq	-8(%rbp), %rsi
	movq	(%rsi), %rdi
	movq	%rdx, %rsi
	movl	%eax, -96(%rbp)         ## 4-byte Spill
	callq	_sqlite3_regexp_init
	xorl	%ecx, %ecx
	movl	%ecx, %edx
	movq	-8(%rbp), %rsi
	movq	(%rsi), %rdi
	movq	%rdx, %rsi
	movl	%eax, -100(%rbp)        ## 4-byte Spill
	callq	_sqlite3_ieee_init
	xorl	%ecx, %ecx
	movl	%ecx, %edx
	movq	-8(%rbp), %rsi
	movq	(%rsi), %rdi
	movq	%rdx, %rsi
	movl	%eax, -104(%rbp)        ## 4-byte Spill
	callq	_sqlite3_series_init
	xorl	%ecx, %ecx
	movl	%ecx, %r8d
	movq	-8(%rbp), %rdx
	movq	(%rdx), %rdi
	leaq	L_.str.239(%rip), %rsi
	movl	$3, %edx
	movl	$1, %ecx
	leaq	_shellAddSchemaName(%rip), %r9
	movq	$0, (%rsp)
	movq	$0, 8(%rsp)
	movl	%eax, -108(%rbp)        ## 4-byte Spill
	callq	_sqlite3_create_function
	xorl	%ecx, %ecx
	movl	%ecx, %r8d
	movq	-8(%rbp), %rsi
	movq	(%rsi), %rdi
	leaq	L_.str.240(%rip), %rsi
	movl	$1, %ecx
	movl	%ecx, %edx
	leaq	_shellModuleSchema(%rip), %r9
	movq	$0, (%rsp)
	movq	$0, 8(%rsp)
	movl	%eax, -112(%rbp)        ## 4-byte Spill
	callq	_sqlite3_create_function
	xorl	%ecx, %ecx
	movl	%ecx, %esi
	movq	-8(%rbp), %rdi
	movq	(%rdi), %rdi
	movq	-8(%rbp), %r8
	leaq	L_.str.241(%rip), %r9
	movq	%rsi, -120(%rbp)        ## 8-byte Spill
	movq	%r9, %rsi
	movl	$1, %ecx
	movl	%ecx, %edx
	leaq	_shellPutsFunc(%rip), %r9
	movq	$0, (%rsp)
	movq	$0, 8(%rsp)
	movl	%eax, -124(%rbp)        ## 4-byte Spill
	callq	_sqlite3_create_function
	xorl	%ecx, %ecx
	movl	%ecx, %r8d
	movq	-8(%rbp), %rsi
	movq	(%rsi), %rdi
	leaq	L_.str.242(%rip), %rsi
	movl	$1, %ecx
	movl	%ecx, %edx
	leaq	_shellEscapeCrnl(%rip), %r9
	movq	$0, (%rsp)
	movq	$0, 8(%rsp)
	movl	%eax, -128(%rbp)        ## 4-byte Spill
	callq	_sqlite3_create_function
	xorl	%ecx, %ecx
	movl	%ecx, %r8d
	movq	-8(%rbp), %rsi
	movq	(%rsi), %rdi
	leaq	L_.str.243(%rip), %rsi
	movl	$2, %edx
	movl	$1, %ecx
	leaq	_shellInt32(%rip), %r9
	movq	$0, (%rsp)
	movq	$0, 8(%rsp)
	movl	%eax, -132(%rbp)        ## 4-byte Spill
	callq	_sqlite3_create_function
	xorl	%ecx, %ecx
	movl	%ecx, %r8d
	movq	-8(%rbp), %rsi
	movq	(%rsi), %rdi
	leaq	L_.str.244(%rip), %rsi
	movl	$1, %ecx
	movl	%ecx, %edx
	leaq	_shellIdQuote(%rip), %r9
	movq	$0, (%rsp)
	movq	$0, 8(%rsp)
	movl	%eax, -136(%rbp)        ## 4-byte Spill
	callq	_sqlite3_create_function
	xorl	%ecx, %ecx
	movl	%ecx, %r8d
	movq	-8(%rbp), %rsi
	movq	(%rsi), %rdi
	leaq	L_.str.245(%rip), %rsi
	movl	$1, %ecx
	movl	%ecx, %edx
	leaq	_shellUSleepFunc(%rip), %r9
	movq	$0, (%rsp)
	movq	$0, 8(%rsp)
	movl	%eax, -140(%rbp)        ## 4-byte Spill
	callq	_sqlite3_create_function
	xorl	%ecx, %ecx
	movl	%ecx, %r8d
	movq	-8(%rbp), %rsi
	movq	(%rsi), %rdi
	leaq	L_.str.246(%rip), %rsi
	movl	$1, %ecx
	movl	%ecx, %edx
	leaq	_editFunc(%rip), %r9
	movq	$0, (%rsp)
	movq	$0, 8(%rsp)
	movl	%eax, -144(%rbp)        ## 4-byte Spill
	callq	_sqlite3_create_function
	xorl	%ecx, %ecx
	movl	%ecx, %r8d
	movq	-8(%rbp), %rsi
	movq	(%rsi), %rdi
	leaq	L_.str.246(%rip), %rsi
	movl	$2, %edx
	movl	$1, %ecx
	leaq	_editFunc(%rip), %r9
	movq	$0, (%rsp)
	movq	$0, 8(%rsp)
	movl	%eax, -148(%rbp)        ## 4-byte Spill
	callq	_sqlite3_create_function
	movq	-8(%rbp), %rsi
	movzbl	13(%rsi), %ecx
	cmpl	$3, %ecx
	jne	LBB70_20
## %bb.19:
	movq	-24(%rbp), %rsi
	leaq	L_.str.247(%rip), %rdi
	movb	$0, %al
	callq	_sqlite3_mprintf
	movq	%rax, -32(%rbp)
	movq	-32(%rbp), %rdi
	callq	_shell_check_oom
	xorl	%ecx, %ecx
	movl	%ecx, %eax
	movq	-8(%rbp), %rdx
	movq	(%rdx), %rdi
	movq	-32(%rbp), %rsi
	movq	%rax, %rdx
	movq	%rax, %rcx
	movq	%rax, %r8
	callq	_sqlite3_exec
	movq	-32(%rbp), %rdi
	movl	%eax, -152(%rbp)        ## 4-byte Spill
	callq	_sqlite3_free
	jmp	LBB70_33
LBB70_20:
	movq	-8(%rbp), %rax
	movzbl	13(%rax), %ecx
	cmpl	$5, %ecx
	je	LBB70_22
## %bb.21:
	movq	-8(%rbp), %rax
	movzbl	13(%rax), %ecx
	cmpl	$6, %ecx
	jne	LBB70_32
LBB70_22:
	movl	$0, -40(%rbp)
	movq	-8(%rbp), %rax
	movzbl	13(%rax), %ecx
	cmpl	$5, %ecx
	jne	LBB70_24
## %bb.23:
	movq	-24(%rbp), %rdi
	leaq	-40(%rbp), %rsi
	callq	_readFile
	movq	%rax, -48(%rbp)
	jmp	LBB70_27
LBB70_24:
	movq	-8(%rbp), %rdi
	leaq	-40(%rbp), %rsi
	callq	_readHexDb
	movq	%rax, -48(%rbp)
	cmpq	$0, -48(%rbp)
	jne	LBB70_26
## %bb.25:
	jmp	LBB70_37
LBB70_26:
	jmp	LBB70_27
LBB70_27:
	movq	-8(%rbp), %rax
	movq	(%rax), %rdi
	movq	-48(%rbp), %rdx
	movslq	-40(%rbp), %rcx
	movslq	-40(%rbp), %r8
	leaq	L___func__.main(%rip), %rsi
	movl	$3, %r9d
	callq	_sqlite3_deserialize
	movl	%eax, -36(%rbp)
	cmpl	$0, -36(%rbp)
	je	LBB70_29
## %bb.28:
	movq	___stderrp@GOTPCREL(%rip), %rax
	movq	(%rax), %rdi
	movl	-36(%rbp), %edx
	leaq	L_.str.248(%rip), %rsi
	movb	$0, %al
	callq	_fprintf
LBB70_29:
	movq	-8(%rbp), %rax
	cmpq	$0, 136(%rax)
	jle	LBB70_31
## %bb.30:
	movq	-8(%rbp), %rax
	movq	(%rax), %rdi
	movq	-8(%rbp), %rax
	addq	$136, %rax
	leaq	L___func__.main(%rip), %rsi
	movl	$36, %edx
	movq	%rax, %rcx
	callq	_sqlite3_file_control
LBB70_31:
	jmp	LBB70_32
LBB70_32:
	jmp	LBB70_33
LBB70_33:
	jmp	LBB70_34
LBB70_34:
	movq	-8(%rbp), %rax
	movzbl	18(%rax), %ecx
	cmpl	$0, %ecx
	je	LBB70_37
## %bb.35:
	movq	-8(%rbp), %rax
	cmpq	$0, (%rax)
	je	LBB70_37
## %bb.36:
	movq	-8(%rbp), %rax
	movq	(%rax), %rdi
	movq	-8(%rbp), %rax
	leaq	_safeModeAuth(%rip), %rsi
	movq	%rax, %rdx
	callq	_sqlite3_set_authorizer
LBB70_37:
	addq	$176, %rsp
	popq	%rbp
	retq
	.cfi_endproc
	.p2align	2, 0x90
	.data_region jt32
.set L70_0_set_12, LBB70_12-LJTI70_0
.set L70_0_set_8, LBB70_8-LJTI70_0
.set L70_0_set_10, LBB70_10-LJTI70_0
.set L70_0_set_11, LBB70_11-LJTI70_0
.set L70_0_set_9, LBB70_9-LJTI70_0
LJTI70_0:
	.long	L70_0_set_12
	.long	L70_0_set_12
	.long	L70_0_set_8
	.long	L70_0_set_10
	.long	L70_0_set_11
	.long	L70_0_set_9
	.long	L70_0_set_9
	.end_data_region
                                        ## -- End function
	.p2align	4, 0x90         ## -- Begin function process_sqliterc
_process_sqliterc:                      ## @process_sqliterc
	.cfi_startproc
## %bb.0:
	pushq	%rbp
	.cfi_def_cfa_offset 16
	.cfi_offset %rbp, -16
	movq	%rsp, %rbp
	.cfi_def_cfa_register %rbp
	subq	$64, %rsp
	movq	%rdi, -8(%rbp)
	movq	%rsi, -16(%rbp)
	movq	$0, -24(%rbp)
	movq	-16(%rbp), %rax
	movq	%rax, -32(%rbp)
	movq	$0, -40(%rbp)
	movq	-8(%rbp), %rax
	movq	56(%rax), %rax
	movq	%rax, -48(%rbp)
	movq	-8(%rbp), %rax
	movl	48(%rax), %ecx
	movl	%ecx, -52(%rbp)
	cmpq	$0, -32(%rbp)
	jne	LBB71_4
## %bb.1:
	xorl	%edi, %edi
	callq	_find_home_dir
	movq	%rax, -24(%rbp)
	cmpq	$0, -24(%rbp)
	jne	LBB71_3
## %bb.2:
	movq	___stderrp@GOTPCREL(%rip), %rax
	movq	(%rax), %rdi
	leaq	L_.str.303(%rip), %rsi
	movb	$0, %al
	callq	_fprintf
	jmp	LBB71_17
LBB71_3:
	movq	-24(%rbp), %rsi
	leaq	L_.str.304(%rip), %rdi
	movb	$0, %al
	callq	_sqlite3_mprintf
	movq	%rax, -40(%rbp)
	movq	-40(%rbp), %rdi
	callq	_shell_check_oom
	movq	-40(%rbp), %rax
	movq	%rax, -32(%rbp)
LBB71_4:
	movq	-32(%rbp), %rdi
	leaq	L_.str.28(%rip), %rsi
	callq	_fopen
	movq	-8(%rbp), %rcx
	movq	%rax, 56(%rcx)
	movq	-8(%rbp), %rax
	cmpq	$0, 56(%rax)
	je	LBB71_11
## %bb.5:
	cmpl	$0, _stdin_is_interactive(%rip)
	je	LBB71_7
## %bb.6:
	movq	___stderrp@GOTPCREL(%rip), %rax
	movq	(%rax), %rdi
	movq	-32(%rbp), %rdx
	leaq	L_.str.305(%rip), %rsi
	movb	$0, %al
	callq	_fprintf
LBB71_7:
	movq	-8(%rbp), %rdi
	callq	_process_input
	cmpl	$0, %eax
	je	LBB71_10
## %bb.8:
	cmpl	$0, _bail_on_error(%rip)
	je	LBB71_10
## %bb.9:
	movl	$1, %edi
	callq	_exit
LBB71_10:
	movq	-8(%rbp), %rax
	movq	56(%rax), %rdi
	callq	_fclose
	jmp	LBB71_16
LBB71_11:
	cmpq	$0, -16(%rbp)
	je	LBB71_15
## %bb.12:
	movq	___stderrp@GOTPCREL(%rip), %rax
	movq	(%rax), %rdi
	movq	-32(%rbp), %rdx
	leaq	L_.str.306(%rip), %rsi
	movb	$0, %al
	callq	_fprintf
	cmpl	$0, _bail_on_error(%rip)
	je	LBB71_14
## %bb.13:
	movl	$1, %edi
	callq	_exit
LBB71_14:
	jmp	LBB71_15
LBB71_15:
	jmp	LBB71_16
LBB71_16:
	movq	-48(%rbp), %rax
	movq	-8(%rbp), %rcx
	movq	%rax, 56(%rcx)
	movl	-52(%rbp), %edx
	movq	-8(%rbp), %rax
	movl	%edx, 48(%rax)
	movq	-40(%rbp), %rdi
	callq	_sqlite3_free
LBB71_17:
	addq	$64, %rsp
	popq	%rbp
	retq
	.cfi_endproc
                                        ## -- End function
	.p2align	4, 0x90         ## -- Begin function usage
_usage:                                 ## @usage
	.cfi_startproc
## %bb.0:
	pushq	%rbp
	.cfi_def_cfa_offset 16
	.cfi_offset %rbp, -16
	movq	%rsp, %rbp
	.cfi_def_cfa_register %rbp
	subq	$16, %rsp
	movq	___stderrp@GOTPCREL(%rip), %rax
	movl	%edi, -4(%rbp)
	movq	(%rax), %rdi
	movq	_Argv0(%rip), %rdx
	leaq	L_.str.307(%rip), %rsi
	movb	$0, %al
	callq	_fprintf
	cmpl	$0, -4(%rbp)
	je	LBB72_2
## %bb.1:
	movq	___stderrp@GOTPCREL(%rip), %rax
	movq	(%rax), %rdi
	leaq	L_.str.308(%rip), %rsi
	leaq	_zOptions(%rip), %rdx
	movb	$0, %al
	callq	_fprintf
	jmp	LBB72_3
LBB72_2:
	movq	___stderrp@GOTPCREL(%rip), %rax
	movq	(%rax), %rdi
	leaq	L_.str.309(%rip), %rsi
	movb	$0, %al
	callq	_fprintf
LBB72_3:
	movl	$1, %edi
	callq	_exit
	.cfi_endproc
                                        ## -- End function
	.p2align	4, 0x90         ## -- Begin function do_meta_command
_do_meta_command:                       ## @do_meta_command
	.cfi_startproc
## %bb.0:
	pushq	%rbp
	.cfi_def_cfa_offset 16
	.cfi_offset %rbp, -16
	movq	%rsp, %rbp
	.cfi_def_cfa_register %rbp
	movl	$6624, %eax             ## imm = 0x19E0
	callq	____chkstk_darwin
	subq	%rax, %rsp
	movq	___stack_chk_guard@GOTPCREL(%rip), %rax
	movq	(%rax), %rax
	movq	%rax, -8(%rbp)
	movq	%rdi, -3936(%rbp)
	movq	%rsi, -3944(%rbp)
	movl	$1, -3948(%rbp)
	movl	$0, -3952(%rbp)
	movl	$0, -3964(%rbp)
	movq	-3944(%rbp), %rax
	cmpq	$0, 1624(%rax)
	je	LBB73_2
## %bb.1:
	xorl	%eax, %eax
	movl	%eax, %edx
	movq	-3944(%rbp), %rdi
	movl	$1, %esi
	callq	_expertFinish
LBB73_2:
	jmp	LBB73_3
LBB73_3:                                ## =>This Loop Header: Depth=1
                                        ##     Child Loop BB73_7 Depth 2
                                        ##     Child Loop BB73_28 Depth 2
                                        ##     Child Loop BB73_14 Depth 2
	xorl	%eax, %eax
                                        ## kill: def $al killed $al killed $eax
	movq	-3936(%rbp), %rcx
	movslq	-3948(%rbp), %rdx
	movsbl	(%rcx,%rdx), %esi
	cmpl	$0, %esi
	movb	%al, -5457(%rbp)        ## 1-byte Spill
	je	LBB73_5
## %bb.4:                               ##   in Loop: Header=BB73_3 Depth=1
	cmpl	$51, -3952(%rbp)
	setl	%al
	movb	%al, -5457(%rbp)        ## 1-byte Spill
LBB73_5:                                ##   in Loop: Header=BB73_3 Depth=1
	movb	-5457(%rbp), %al        ## 1-byte Reload
	testb	$1, %al
	jne	LBB73_6
	jmp	LBB73_36
LBB73_6:                                ##   in Loop: Header=BB73_3 Depth=1
	jmp	LBB73_7
LBB73_7:                                ##   Parent Loop BB73_3 Depth=1
                                        ## =>  This Inner Loop Header: Depth=2
	movq	-3936(%rbp), %rax
	movslq	-3948(%rbp), %rcx
	movzbl	(%rax,%rcx), %edi
	callq	_isspace
	cmpl	$0, %eax
	je	LBB73_9
## %bb.8:                               ##   in Loop: Header=BB73_7 Depth=2
	movl	-3948(%rbp), %eax
	addl	$1, %eax
	movl	%eax, -3948(%rbp)
	jmp	LBB73_7
LBB73_9:                                ##   in Loop: Header=BB73_3 Depth=1
	movq	-3936(%rbp), %rax
	movslq	-3948(%rbp), %rcx
	movsbl	(%rax,%rcx), %edx
	cmpl	$0, %edx
	jne	LBB73_11
## %bb.10:
	jmp	LBB73_36
LBB73_11:                               ##   in Loop: Header=BB73_3 Depth=1
	movq	-3936(%rbp), %rax
	movslq	-3948(%rbp), %rcx
	movsbl	(%rax,%rcx), %edx
	cmpl	$39, %edx
	je	LBB73_13
## %bb.12:                              ##   in Loop: Header=BB73_3 Depth=1
	movq	-3936(%rbp), %rax
	movslq	-3948(%rbp), %rcx
	movsbl	(%rax,%rcx), %edx
	cmpl	$34, %edx
	jne	LBB73_27
LBB73_13:                               ##   in Loop: Header=BB73_3 Depth=1
	movq	-3936(%rbp), %rax
	movl	-3948(%rbp), %ecx
	movl	%ecx, %edx
	addl	$1, %edx
	movl	%edx, -3948(%rbp)
	movslq	%ecx, %rsi
	movsbl	(%rax,%rsi), %ecx
	movl	%ecx, -3968(%rbp)
	movq	-3936(%rbp), %rax
	movslq	-3948(%rbp), %rsi
	addq	%rsi, %rax
	movl	-3952(%rbp), %ecx
	movl	%ecx, %edx
	addl	$1, %edx
	movl	%edx, -3952(%rbp)
	movslq	%ecx, %rsi
	movq	%rax, -432(%rbp,%rsi,8)
LBB73_14:                               ##   Parent Loop BB73_3 Depth=1
                                        ## =>  This Inner Loop Header: Depth=2
	xorl	%eax, %eax
                                        ## kill: def $al killed $al killed $eax
	movq	-3936(%rbp), %rcx
	movslq	-3948(%rbp), %rdx
	movsbl	(%rcx,%rdx), %esi
	cmpl	$0, %esi
	movb	%al, -5458(%rbp)        ## 1-byte Spill
	je	LBB73_16
## %bb.15:                              ##   in Loop: Header=BB73_14 Depth=2
	movq	-3936(%rbp), %rax
	movslq	-3948(%rbp), %rcx
	movsbl	(%rax,%rcx), %edx
	cmpl	-3968(%rbp), %edx
	setne	%sil
	movb	%sil, -5458(%rbp)       ## 1-byte Spill
LBB73_16:                               ##   in Loop: Header=BB73_14 Depth=2
	movb	-5458(%rbp), %al        ## 1-byte Reload
	testb	$1, %al
	jne	LBB73_17
	jmp	LBB73_22
LBB73_17:                               ##   in Loop: Header=BB73_14 Depth=2
	movq	-3936(%rbp), %rax
	movslq	-3948(%rbp), %rcx
	movsbl	(%rax,%rcx), %edx
	cmpl	$92, %edx
	jne	LBB73_21
## %bb.18:                              ##   in Loop: Header=BB73_14 Depth=2
	cmpl	$34, -3968(%rbp)
	jne	LBB73_21
## %bb.19:                              ##   in Loop: Header=BB73_14 Depth=2
	movq	-3936(%rbp), %rax
	movl	-3948(%rbp), %ecx
	addl	$1, %ecx
	movslq	%ecx, %rdx
	movsbl	(%rax,%rdx), %ecx
	cmpl	$0, %ecx
	je	LBB73_21
## %bb.20:                              ##   in Loop: Header=BB73_14 Depth=2
	movl	-3948(%rbp), %eax
	addl	$1, %eax
	movl	%eax, -3948(%rbp)
LBB73_21:                               ##   in Loop: Header=BB73_14 Depth=2
	movl	-3948(%rbp), %eax
	addl	$1, %eax
	movl	%eax, -3948(%rbp)
	jmp	LBB73_14
LBB73_22:                               ##   in Loop: Header=BB73_3 Depth=1
	movq	-3936(%rbp), %rax
	movslq	-3948(%rbp), %rcx
	movsbl	(%rax,%rcx), %edx
	cmpl	-3968(%rbp), %edx
	jne	LBB73_24
## %bb.23:                              ##   in Loop: Header=BB73_3 Depth=1
	movq	-3936(%rbp), %rax
	movl	-3948(%rbp), %ecx
	movl	%ecx, %edx
	addl	$1, %edx
	movl	%edx, -3948(%rbp)
	movslq	%ecx, %rsi
	movb	$0, (%rax,%rsi)
LBB73_24:                               ##   in Loop: Header=BB73_3 Depth=1
	cmpl	$34, -3968(%rbp)
	jne	LBB73_26
## %bb.25:                              ##   in Loop: Header=BB73_3 Depth=1
	movl	-3952(%rbp), %eax
	subl	$1, %eax
	movslq	%eax, %rcx
	movq	-432(%rbp,%rcx,8), %rdi
	callq	_resolve_backslashes
LBB73_26:                               ##   in Loop: Header=BB73_3 Depth=1
	jmp	LBB73_35
LBB73_27:                               ##   in Loop: Header=BB73_3 Depth=1
	movq	-3936(%rbp), %rax
	movslq	-3948(%rbp), %rcx
	addq	%rcx, %rax
	movl	-3952(%rbp), %edx
	movl	%edx, %esi
	addl	$1, %esi
	movl	%esi, -3952(%rbp)
	movslq	%edx, %rcx
	movq	%rax, -432(%rbp,%rcx,8)
LBB73_28:                               ##   Parent Loop BB73_3 Depth=1
                                        ## =>  This Inner Loop Header: Depth=2
	xorl	%eax, %eax
                                        ## kill: def $al killed $al killed $eax
	movq	-3936(%rbp), %rcx
	movslq	-3948(%rbp), %rdx
	movsbl	(%rcx,%rdx), %esi
	cmpl	$0, %esi
	movb	%al, -5459(%rbp)        ## 1-byte Spill
	je	LBB73_30
## %bb.29:                              ##   in Loop: Header=BB73_28 Depth=2
	movq	-3936(%rbp), %rax
	movslq	-3948(%rbp), %rcx
	movzbl	(%rax,%rcx), %edi
	callq	_isspace
	cmpl	$0, %eax
	setne	%dl
	xorb	$-1, %dl
	movb	%dl, -5459(%rbp)        ## 1-byte Spill
LBB73_30:                               ##   in Loop: Header=BB73_28 Depth=2
	movb	-5459(%rbp), %al        ## 1-byte Reload
	testb	$1, %al
	jne	LBB73_31
	jmp	LBB73_32
LBB73_31:                               ##   in Loop: Header=BB73_28 Depth=2
	movl	-3948(%rbp), %eax
	addl	$1, %eax
	movl	%eax, -3948(%rbp)
	jmp	LBB73_28
LBB73_32:                               ##   in Loop: Header=BB73_3 Depth=1
	movq	-3936(%rbp), %rax
	movslq	-3948(%rbp), %rcx
	cmpb	$0, (%rax,%rcx)
	je	LBB73_34
## %bb.33:                              ##   in Loop: Header=BB73_3 Depth=1
	movq	-3936(%rbp), %rax
	movl	-3948(%rbp), %ecx
	movl	%ecx, %edx
	addl	$1, %edx
	movl	%edx, -3948(%rbp)
	movslq	%ecx, %rsi
	movb	$0, (%rax,%rsi)
LBB73_34:                               ##   in Loop: Header=BB73_3 Depth=1
	movl	-3952(%rbp), %eax
	subl	$1, %eax
	movslq	%eax, %rcx
	movq	-432(%rbp,%rcx,8), %rdi
	callq	_resolve_backslashes
LBB73_35:                               ##   in Loop: Header=BB73_3 Depth=1
	jmp	LBB73_3
LBB73_36:
	movslq	-3952(%rbp), %rax
	movq	$0, -432(%rbp,%rax,8)
	cmpl	$0, -3952(%rbp)
	jne	LBB73_38
## %bb.37:
	movl	$0, -3924(%rbp)
	jmp	LBB73_1633
LBB73_38:
	movq	-432(%rbp), %rdi
	callq	_strlen30
	movl	%eax, -3956(%rbp)
	movq	-432(%rbp), %rcx
	movsbl	(%rcx), %eax
	movl	%eax, -3960(%rbp)
	movq	-3944(%rbp), %rdi
	callq	_clearTempFile
	cmpl	$97, -3960(%rbp)
	jne	LBB73_49
## %bb.39:
	movq	-432(%rbp), %rdi
	movslq	-3956(%rbp), %rdx
	leaq	L_.str.310(%rip), %rsi
	callq	_strncmp
	cmpl	$0, %eax
	jne	LBB73_49
## %bb.40:
	cmpl	$2, -3952(%rbp)
	je	LBB73_42
## %bb.41:
	movq	___stderrp@GOTPCREL(%rip), %rax
	movq	(%rax), %rdi
	leaq	L_.str.311(%rip), %rsi
	movb	$0, %al
	callq	_fprintf
	movl	$1, -3964(%rbp)
	jmp	LBB73_1628
LBB73_42:
	xorl	%esi, %esi
	movq	-3944(%rbp), %rdi
	callq	_open_db
	movq	-424(%rbp), %rdi
	callq	_booleanValue
	cmpl	$0, %eax
	je	LBB73_44
## %bb.43:
	movq	-3944(%rbp), %rax
	movq	(%rax), %rdi
	movq	-3944(%rbp), %rax
	leaq	_shellAuth(%rip), %rsi
	movq	%rax, %rdx
	callq	_sqlite3_set_authorizer
	jmp	LBB73_48
LBB73_44:
	movq	-3944(%rbp), %rax
	cmpb	$0, 18(%rax)
	je	LBB73_46
## %bb.45:
	movq	-3944(%rbp), %rax
	movq	(%rax), %rdi
	movq	-3944(%rbp), %rax
	leaq	_safeModeAuth(%rip), %rsi
	movq	%rax, %rdx
	callq	_sqlite3_set_authorizer
	jmp	LBB73_47
LBB73_46:
	xorl	%eax, %eax
	movl	%eax, %ecx
	movq	-3944(%rbp), %rdx
	movq	(%rdx), %rdi
	movq	%rcx, %rsi
	movq	%rcx, %rdx
	callq	_sqlite3_set_authorizer
LBB73_47:
	jmp	LBB73_48
LBB73_48:
	jmp	LBB73_1627
LBB73_49:
	cmpl	$98, -3960(%rbp)
	jne	LBB73_52
## %bb.50:
	cmpl	$3, -3956(%rbp)
	jl	LBB73_52
## %bb.51:
	movq	-432(%rbp), %rdi
	movslq	-3956(%rbp), %rdx
	leaq	L_.str.312(%rip), %rsi
	callq	_strncmp
	cmpl	$0, %eax
	je	LBB73_55
LBB73_52:
	cmpl	$115, -3960(%rbp)
	jne	LBB73_93
## %bb.53:
	cmpl	$3, -3956(%rbp)
	jl	LBB73_93
## %bb.54:
	movq	-432(%rbp), %rdi
	movslq	-3956(%rbp), %rdx
	leaq	L_.str.313(%rip), %rsi
	callq	_strncmp
	cmpl	$0, %eax
	jne	LBB73_93
LBB73_55:
	movq	$0, -3976(%rbp)
	movq	$0, -3984(%rbp)
	movl	$0, -4008(%rbp)
	movq	$0, -4016(%rbp)
	movq	-3944(%rbp), %rdi
	movq	-432(%rbp), %rdx
	leaq	L_.str.314(%rip), %rsi
	movb	$0, %al
	callq	_failIfSafeMode
	movl	$1, -4004(%rbp)
LBB73_56:                               ## =>This Inner Loop Header: Depth=1
	movl	-4004(%rbp), %eax
	cmpl	-3952(%rbp), %eax
	jge	LBB73_76
## %bb.57:                              ##   in Loop: Header=BB73_56 Depth=1
	movslq	-4004(%rbp), %rax
	movq	-432(%rbp,%rax,8), %rax
	movq	%rax, -4024(%rbp)
	movq	-4024(%rbp), %rax
	movsbl	(%rax), %ecx
	cmpl	$45, %ecx
	jne	LBB73_67
## %bb.58:                              ##   in Loop: Header=BB73_56 Depth=1
	movq	-4024(%rbp), %rax
	movsbl	1(%rax), %ecx
	cmpl	$45, %ecx
	jne	LBB73_60
## %bb.59:                              ##   in Loop: Header=BB73_56 Depth=1
	movq	-4024(%rbp), %rax
	addq	$1, %rax
	movq	%rax, -4024(%rbp)
LBB73_60:                               ##   in Loop: Header=BB73_56 Depth=1
	movq	-4024(%rbp), %rdi
	leaq	L_.str.52(%rip), %rsi
	callq	_strcmp
	cmpl	$0, %eax
	jne	LBB73_62
## %bb.61:                              ##   in Loop: Header=BB73_56 Depth=1
	leaq	L_.str.130(%rip), %rax
	movq	%rax, -4016(%rbp)
	jmp	LBB73_66
LBB73_62:                               ##   in Loop: Header=BB73_56 Depth=1
	movq	-4024(%rbp), %rdi
	leaq	L_.str.315(%rip), %rsi
	callq	_strcmp
	cmpl	$0, %eax
	jne	LBB73_64
## %bb.63:                              ##   in Loop: Header=BB73_56 Depth=1
	movl	$1, -4008(%rbp)
	jmp	LBB73_65
LBB73_64:
	movq	___stderrp@GOTPCREL(%rip), %rax
	movq	(%rax), %rdi
	movslq	-4004(%rbp), %rax
	movq	-432(%rbp,%rax,8), %rdx
	leaq	L_.str.316(%rip), %rsi
	movb	$0, %al
	callq	_fprintf
	movl	$1, -3924(%rbp)
	jmp	LBB73_1633
LBB73_65:                               ##   in Loop: Header=BB73_56 Depth=1
	jmp	LBB73_66
LBB73_66:                               ##   in Loop: Header=BB73_56 Depth=1
	jmp	LBB73_74
LBB73_67:                               ##   in Loop: Header=BB73_56 Depth=1
	cmpq	$0, -3976(%rbp)
	jne	LBB73_69
## %bb.68:                              ##   in Loop: Header=BB73_56 Depth=1
	movslq	-4004(%rbp), %rax
	movq	-432(%rbp,%rax,8), %rax
	movq	%rax, -3976(%rbp)
	jmp	LBB73_73
LBB73_69:                               ##   in Loop: Header=BB73_56 Depth=1
	cmpq	$0, -3984(%rbp)
	jne	LBB73_71
## %bb.70:                              ##   in Loop: Header=BB73_56 Depth=1
	movq	-3976(%rbp), %rax
	movq	%rax, -3984(%rbp)
	movslq	-4004(%rbp), %rax
	movq	-432(%rbp,%rax,8), %rax
	movq	%rax, -3976(%rbp)
	jmp	LBB73_72
LBB73_71:
	movq	___stderrp@GOTPCREL(%rip), %rax
	movq	(%rax), %rdi
	leaq	L_.str.317(%rip), %rsi
	movb	$0, %al
	callq	_fprintf
	movl	$1, -3924(%rbp)
	jmp	LBB73_1633
LBB73_72:                               ##   in Loop: Header=BB73_56 Depth=1
	jmp	LBB73_73
LBB73_73:                               ##   in Loop: Header=BB73_56 Depth=1
	jmp	LBB73_74
LBB73_74:                               ##   in Loop: Header=BB73_56 Depth=1
	jmp	LBB73_75
LBB73_75:                               ##   in Loop: Header=BB73_56 Depth=1
	movl	-4004(%rbp), %eax
	addl	$1, %eax
	movl	%eax, -4004(%rbp)
	jmp	LBB73_56
LBB73_76:
	cmpq	$0, -3976(%rbp)
	jne	LBB73_78
## %bb.77:
	movq	___stderrp@GOTPCREL(%rip), %rax
	movq	(%rax), %rdi
	leaq	L_.str.318(%rip), %rsi
	movb	$0, %al
	callq	_fprintf
	movl	$1, -3924(%rbp)
	jmp	LBB73_1633
LBB73_78:
	cmpq	$0, -3984(%rbp)
	jne	LBB73_80
## %bb.79:
	leaq	L___func__.main(%rip), %rax
	movq	%rax, -3984(%rbp)
LBB73_80:
	movq	-3976(%rbp), %rdi
	movq	-4016(%rbp), %rcx
	leaq	-3992(%rbp), %rsi
	movl	$6, %edx
	callq	_sqlite3_open_v2
	movl	%eax, -3964(%rbp)
	cmpl	$0, -3964(%rbp)
	je	LBB73_82
## %bb.81:
	movq	___stderrp@GOTPCREL(%rip), %rax
	movq	(%rax), %rdi
	movq	-3976(%rbp), %rdx
	leaq	L_.str.319(%rip), %rsi
	movb	$0, %al
	callq	_fprintf
	movq	-3992(%rbp), %rdi
	movl	%eax, -5464(%rbp)       ## 4-byte Spill
	callq	_close_db
	movl	$1, -3924(%rbp)
	jmp	LBB73_1633
LBB73_82:
	cmpl	$0, -4008(%rbp)
	je	LBB73_84
## %bb.83:
	xorl	%eax, %eax
	movl	%eax, %ecx
	movq	-3992(%rbp), %rdi
	leaq	L_.str.320(%rip), %rsi
	movq	%rcx, %rdx
	movq	%rcx, -5472(%rbp)       ## 8-byte Spill
	movq	-5472(%rbp), %r8        ## 8-byte Reload
	callq	_sqlite3_exec
LBB73_84:
	xorl	%esi, %esi
	movq	-3944(%rbp), %rdi
	callq	_open_db
	movq	-3992(%rbp), %rdi
	movq	-3944(%rbp), %rax
	movq	(%rax), %rdx
	movq	-3984(%rbp), %rcx
	leaq	L___func__.main(%rip), %rsi
	callq	_sqlite3_backup_init
	movq	%rax, -4000(%rbp)
	cmpq	$0, -4000(%rbp)
	jne	LBB73_86
## %bb.85:
	movq	___stderrp@GOTPCREL(%rip), %rax
	movq	(%rax), %rdi
	movq	-3992(%rbp), %rax
	movq	%rdi, -5480(%rbp)       ## 8-byte Spill
	movq	%rax, %rdi
	callq	_sqlite3_errmsg
	movq	-5480(%rbp), %rdi       ## 8-byte Reload
	leaq	L_.str.92(%rip), %rsi
	movq	%rax, %rdx
	movb	$0, %al
	callq	_fprintf
	movq	-3992(%rbp), %rdi
	movl	%eax, -5484(%rbp)       ## 4-byte Spill
	callq	_close_db
	movl	$1, -3924(%rbp)
	jmp	LBB73_1633
LBB73_86:
	jmp	LBB73_87
LBB73_87:                               ## =>This Inner Loop Header: Depth=1
	movq	-4000(%rbp), %rdi
	movl	$100, %esi
	callq	_sqlite3_backup_step
	movl	%eax, -3964(%rbp)
	cmpl	$0, %eax
	jne	LBB73_89
## %bb.88:                              ##   in Loop: Header=BB73_87 Depth=1
	jmp	LBB73_87
LBB73_89:
	movq	-4000(%rbp), %rdi
	callq	_sqlite3_backup_finish
	cmpl	$101, -3964(%rbp)
	jne	LBB73_91
## %bb.90:
	movl	$0, -3964(%rbp)
	jmp	LBB73_92
LBB73_91:
	movq	___stderrp@GOTPCREL(%rip), %rax
	movq	(%rax), %rdi
	movq	-3992(%rbp), %rax
	movq	%rdi, -5496(%rbp)       ## 8-byte Spill
	movq	%rax, %rdi
	callq	_sqlite3_errmsg
	movq	-5496(%rbp), %rdi       ## 8-byte Reload
	leaq	L_.str.92(%rip), %rsi
	movq	%rax, %rdx
	movb	$0, %al
	callq	_fprintf
	movl	$1, -3964(%rbp)
LBB73_92:
	movq	-3992(%rbp), %rdi
	callq	_close_db
	jmp	LBB73_1626
LBB73_93:
	cmpl	$98, -3960(%rbp)
	jne	LBB73_100
## %bb.94:
	cmpl	$3, -3956(%rbp)
	jl	LBB73_100
## %bb.95:
	movq	-432(%rbp), %rdi
	movslq	-3956(%rbp), %rdx
	leaq	L_.str.321(%rip), %rsi
	callq	_strncmp
	cmpl	$0, %eax
	jne	LBB73_100
## %bb.96:
	cmpl	$2, -3952(%rbp)
	jne	LBB73_98
## %bb.97:
	movq	-424(%rbp), %rdi
	callq	_booleanValue
	movl	%eax, _bail_on_error(%rip)
	jmp	LBB73_99
LBB73_98:
	movq	___stderrp@GOTPCREL(%rip), %rax
	movq	(%rax), %rdi
	leaq	L_.str.322(%rip), %rsi
	movb	$0, %al
	callq	_fprintf
	movl	$1, -3964(%rbp)
LBB73_99:
	jmp	LBB73_1625
LBB73_100:
	cmpl	$98, -3960(%rbp)
	jne	LBB73_110
## %bb.101:
	cmpl	$3, -3956(%rbp)
	jl	LBB73_110
## %bb.102:
	movq	-432(%rbp), %rdi
	movslq	-3956(%rbp), %rdx
	leaq	L_.str.170(%rip), %rsi
	callq	_strncmp
	cmpl	$0, %eax
	jne	LBB73_110
## %bb.103:
	cmpl	$2, -3952(%rbp)
	jne	LBB73_108
## %bb.104:
	movq	-424(%rbp), %rdi
	callq	_booleanValue
	cmpl	$0, %eax
	je	LBB73_106
## %bb.105:
	jmp	LBB73_107
LBB73_106:
	jmp	LBB73_107
LBB73_107:
	jmp	LBB73_109
LBB73_108:
	movq	___stderrp@GOTPCREL(%rip), %rax
	movq	(%rax), %rdi
	leaq	L_.str.323(%rip), %rsi
	movb	$0, %al
	callq	_fprintf
	movl	$1, -3964(%rbp)
LBB73_109:
	jmp	LBB73_1624
LBB73_110:
	cmpl	$98, -3960(%rbp)
	jne	LBB73_114
## %bb.111:
	cmpl	$3, -3956(%rbp)
	jl	LBB73_114
## %bb.112:
	movq	-432(%rbp), %rdi
	movslq	-3956(%rbp), %rdx
	leaq	L_.str.324(%rip), %rsi
	callq	_strncmp
	cmpl	$0, %eax
	jne	LBB73_114
## %bb.113:
	callq	_test_breakpoint
	jmp	LBB73_1623
LBB73_114:
	cmpl	$99, -3960(%rbp)
	jne	LBB73_122
## %bb.115:
	movq	-432(%rbp), %rdi
	leaq	L_.str.325(%rip), %rsi
	callq	_strcmp
	cmpl	$0, %eax
	jne	LBB73_122
## %bb.116:
	movq	-3944(%rbp), %rdi
	leaq	L_.str.326(%rip), %rsi
	movb	$0, %al
	callq	_failIfSafeMode
	cmpl	$2, -3952(%rbp)
	jne	LBB73_120
## %bb.117:
	movq	-424(%rbp), %rdi
	callq	_chdir
	movl	%eax, -3964(%rbp)
	cmpl	$0, -3964(%rbp)
	je	LBB73_119
## %bb.118:
	movq	___stderrp@GOTPCREL(%rip), %rax
	movq	(%rax), %rdi
	movq	-424(%rbp), %rdx
	leaq	L_.str.327(%rip), %rsi
	movb	$0, %al
	callq	_fprintf
	movl	$1, -3964(%rbp)
LBB73_119:
	jmp	LBB73_121
LBB73_120:
	movq	___stderrp@GOTPCREL(%rip), %rax
	movq	(%rax), %rdi
	leaq	L_.str.328(%rip), %rsi
	movb	$0, %al
	callq	_fprintf
	movl	$1, -3964(%rbp)
LBB73_121:
	jmp	LBB73_1622
LBB73_122:
	cmpl	$99, -3960(%rbp)
	jne	LBB73_129
## %bb.123:
	cmpl	$3, -3956(%rbp)
	jl	LBB73_129
## %bb.124:
	movq	-432(%rbp), %rdi
	movslq	-3956(%rbp), %rdx
	leaq	L_.str.329(%rip), %rsi
	callq	_strncmp
	cmpl	$0, %eax
	jne	LBB73_129
## %bb.125:
	cmpl	$2, -3952(%rbp)
	jne	LBB73_127
## %bb.126:
	movq	-3944(%rbp), %rdi
	movq	-424(%rbp), %rdx
	movl	$32, %esi
	callq	_setOrClearFlag
	jmp	LBB73_128
LBB73_127:
	movq	___stderrp@GOTPCREL(%rip), %rax
	movq	(%rax), %rdi
	leaq	L_.str.330(%rip), %rsi
	movb	$0, %al
	callq	_fprintf
	movl	$1, -3964(%rbp)
LBB73_128:
	jmp	LBB73_1621
LBB73_129:
	cmpl	$99, -3960(%rbp)
	jne	LBB73_142
## %bb.130:
	cmpl	$3, -3956(%rbp)
	jl	LBB73_142
## %bb.131:
	movq	-432(%rbp), %rdi
	movslq	-3956(%rbp), %rdx
	leaq	L_.str.331(%rip), %rsi
	callq	_strncmp
	cmpl	$0, %eax
	jne	LBB73_142
## %bb.132:
	movq	$0, -4032(%rbp)
	movq	-3944(%rbp), %rdi
	callq	_output_reset
	cmpl	$2, -3952(%rbp)
	je	LBB73_134
## %bb.133:
	movq	___stderrp@GOTPCREL(%rip), %rax
	movq	(%rax), %rdi
	leaq	L_.str.332(%rip), %rsi
	movb	$0, %al
	callq	_fprintf
	movl	$2, -3964(%rbp)
	jmp	LBB73_141
LBB73_134:
	xorl	%eax, %eax
	movl	%eax, %esi
	leaq	L_.str.333(%rip), %rdi
	callq	_readFile
	movq	%rax, -4032(%rbp)
	cmpq	$0, %rax
	jne	LBB73_136
## %bb.135:
	movq	___stderrp@GOTPCREL(%rip), %rax
	movq	(%rax), %rdi
	leaq	L_.str.334(%rip), %rsi
	movb	$0, %al
	callq	_fprintf
	movl	$2, -3964(%rbp)
	jmp	LBB73_140
LBB73_136:
	movq	-424(%rbp), %rdi
	movq	-4032(%rbp), %rsi
	callq	_testcase_glob
	cmpl	$0, %eax
	jne	LBB73_138
## %bb.137:
	movq	___stderrp@GOTPCREL(%rip), %rax
	movq	(%rax), %rdi
	movq	-3944(%rbp), %rax
	addq	$160, %rax
	movq	-424(%rbp), %rcx
	movq	-4032(%rbp), %r8
	leaq	L_.str.335(%rip), %rsi
	movq	%rax, %rdx
	movb	$0, %al
	callq	_fprintf
	movl	$1, -3964(%rbp)
	jmp	LBB73_139
LBB73_138:
	movq	___stdoutp@GOTPCREL(%rip), %rax
	movq	(%rax), %rdi
	movq	-3944(%rbp), %rax
	addq	$160, %rax
	leaq	L_.str.336(%rip), %rsi
	movq	%rax, %rdx
	movb	$0, %al
	callq	_fprintf
	movq	-3944(%rbp), %rcx
	movl	108(%rcx), %r8d
	addl	$1, %r8d
	movl	%r8d, 108(%rcx)
LBB73_139:
	jmp	LBB73_140
LBB73_140:
	jmp	LBB73_141
LBB73_141:
	movq	-4032(%rbp), %rdi
	callq	_sqlite3_free
	jmp	LBB73_1620
LBB73_142:
	cmpl	$99, -3960(%rbp)
	jne	LBB73_148
## %bb.143:
	movq	-432(%rbp), %rdi
	movslq	-3956(%rbp), %rdx
	leaq	L_.str.337(%rip), %rsi
	callq	_strncmp
	cmpl	$0, %eax
	jne	LBB73_148
## %bb.144:
	movq	-3944(%rbp), %rdi
	leaq	L_.str.338(%rip), %rsi
	movb	$0, %al
	callq	_failIfSafeMode
	cmpl	$2, -3952(%rbp)
	jne	LBB73_146
## %bb.145:
	movq	-3944(%rbp), %rdi
	movq	-424(%rbp), %rsi
	callq	_tryToClone
	jmp	LBB73_147
LBB73_146:
	movq	___stderrp@GOTPCREL(%rip), %rax
	movq	(%rax), %rdi
	leaq	L_.str.339(%rip), %rsi
	movb	$0, %al
	callq	_fprintf
	movl	$1, -3964(%rbp)
LBB73_147:
	jmp	LBB73_1619
LBB73_148:
	cmpl	$99, -3960(%rbp)
	jne	LBB73_196
## %bb.149:
	movq	-432(%rbp), %rdi
	movslq	-3956(%rbp), %rdx
	leaq	L_.str.340(%rip), %rsi
	callq	_strncmp
	cmpl	$0, %eax
	jne	LBB73_196
## %bb.150:
	cmpl	$1, -3952(%rbp)
	jne	LBB73_170
## %bb.151:
	movl	$0, -4036(%rbp)
LBB73_152:                              ## =>This Inner Loop Header: Depth=1
	cmpl	$5, -4036(%rbp)
	jge	LBB73_169
## %bb.153:                             ##   in Loop: Header=BB73_152 Depth=1
	movq	-3944(%rbp), %rax
	addq	$1352, %rax             ## imm = 0x548
	movslq	-4036(%rbp), %rcx
	imulq	$24, %rcx, %rcx
	addq	%rcx, %rax
	movq	8(%rax), %rax
	movq	%rax, -4048(%rbp)
	movq	-3944(%rbp), %rax
	addq	$1352, %rax             ## imm = 0x548
	movslq	-4036(%rbp), %rcx
	imulq	$24, %rcx, %rcx
	addq	%rcx, %rax
	cmpq	$0, (%rax)
	jne	LBB73_156
## %bb.154:                             ##   in Loop: Header=BB73_152 Depth=1
	movq	-3944(%rbp), %rax
	movq	1472(%rax), %rax
	movq	-3944(%rbp), %rcx
	addq	$1352, %rcx             ## imm = 0x548
	movslq	-4036(%rbp), %rdx
	imulq	$24, %rdx, %rdx
	addq	%rdx, %rcx
	cmpq	%rcx, %rax
	je	LBB73_156
## %bb.155:                             ##   in Loop: Header=BB73_152 Depth=1
	leaq	L_.str.341(%rip), %rax
	movq	%rax, -4048(%rbp)
	jmp	LBB73_162
LBB73_156:                              ##   in Loop: Header=BB73_152 Depth=1
	cmpq	$0, -4048(%rbp)
	jne	LBB73_158
## %bb.157:                             ##   in Loop: Header=BB73_152 Depth=1
	leaq	L_.str.342(%rip), %rax
	movq	%rax, -4048(%rbp)
	jmp	LBB73_161
LBB73_158:                              ##   in Loop: Header=BB73_152 Depth=1
	movq	-4048(%rbp), %rax
	movsbl	(%rax), %ecx
	cmpl	$0, %ecx
	jne	LBB73_160
## %bb.159:                             ##   in Loop: Header=BB73_152 Depth=1
	leaq	L_.str.343(%rip), %rax
	movq	%rax, -4048(%rbp)
LBB73_160:                              ##   in Loop: Header=BB73_152 Depth=1
	jmp	LBB73_161
LBB73_161:                              ##   in Loop: Header=BB73_152 Depth=1
	jmp	LBB73_162
LBB73_162:                              ##   in Loop: Header=BB73_152 Depth=1
	movq	-3944(%rbp), %rax
	movq	1472(%rax), %rax
	movq	-3944(%rbp), %rcx
	addq	$1352, %rcx             ## imm = 0x548
	movslq	-4036(%rbp), %rdx
	imulq	$24, %rdx, %rdx
	addq	%rdx, %rcx
	cmpq	%rcx, %rax
	jne	LBB73_164
## %bb.163:                             ##   in Loop: Header=BB73_152 Depth=1
	movq	___stdoutp@GOTPCREL(%rip), %rax
	movq	(%rax), %rdi
	movl	-4036(%rbp), %edx
	movq	-4048(%rbp), %rcx
	leaq	L_.str.344(%rip), %rsi
	movb	$0, %al
	callq	_fprintf
	jmp	LBB73_167
LBB73_164:                              ##   in Loop: Header=BB73_152 Depth=1
	movq	-3944(%rbp), %rax
	addq	$1352, %rax             ## imm = 0x548
	movslq	-4036(%rbp), %rcx
	imulq	$24, %rcx, %rcx
	addq	%rcx, %rax
	cmpq	$0, (%rax)
	je	LBB73_166
## %bb.165:                             ##   in Loop: Header=BB73_152 Depth=1
	movq	___stdoutp@GOTPCREL(%rip), %rax
	movq	(%rax), %rdi
	movl	-4036(%rbp), %edx
	movq	-4048(%rbp), %rcx
	leaq	L_.str.345(%rip), %rsi
	movb	$0, %al
	callq	_fprintf
LBB73_166:                              ##   in Loop: Header=BB73_152 Depth=1
	jmp	LBB73_167
LBB73_167:                              ##   in Loop: Header=BB73_152 Depth=1
	jmp	LBB73_168
LBB73_168:                              ##   in Loop: Header=BB73_152 Depth=1
	movl	-4036(%rbp), %eax
	addl	$1, %eax
	movl	%eax, -4036(%rbp)
	jmp	LBB73_152
LBB73_169:
	jmp	LBB73_195
LBB73_170:
	cmpl	$2, -3952(%rbp)
	jne	LBB73_178
## %bb.171:
	movq	-424(%rbp), %rax
	movzbl	(%rax), %edi
	callq	_isdigit
	cmpl	$0, %eax
	je	LBB73_178
## %bb.172:
	movq	-424(%rbp), %rax
	movsbl	1(%rax), %ecx
	cmpl	$0, %ecx
	jne	LBB73_178
## %bb.173:
	movq	-424(%rbp), %rax
	movsbl	(%rax), %ecx
	subl	$48, %ecx
	movl	%ecx, -4052(%rbp)
	movq	-3944(%rbp), %rax
	movq	1472(%rax), %rax
	movq	-3944(%rbp), %rdx
	addq	$1352, %rdx             ## imm = 0x548
	movslq	-4052(%rbp), %rsi
	imulq	$24, %rsi, %rsi
	addq	%rsi, %rdx
	cmpq	%rdx, %rax
	je	LBB73_177
## %bb.174:
	cmpl	$0, -4052(%rbp)
	jl	LBB73_177
## %bb.175:
	cmpl	$5, -4052(%rbp)
	jge	LBB73_177
## %bb.176:
	movq	-3944(%rbp), %rax
	movq	(%rax), %rax
	movq	-3944(%rbp), %rcx
	movq	1472(%rcx), %rcx
	movq	%rax, (%rcx)
	movq	-3944(%rbp), %rax
	addq	$1352, %rax             ## imm = 0x548
	movslq	-4052(%rbp), %rcx
	imulq	$24, %rcx, %rcx
	addq	%rcx, %rax
	movq	-3944(%rbp), %rcx
	movq	%rax, 1472(%rcx)
	movq	-3944(%rbp), %rax
	movq	1472(%rax), %rax
	movq	(%rax), %rax
	movq	-3944(%rbp), %rcx
	movq	%rax, (%rcx)
	movq	%rax, _globalDb(%rip)
	movq	-3944(%rbp), %rax
	movq	1472(%rax), %rax
	movq	$0, (%rax)
LBB73_177:
	jmp	LBB73_194
LBB73_178:
	cmpl	$3, -3952(%rbp)
	jne	LBB73_192
## %bb.179:
	movq	-424(%rbp), %rdi
	leaq	L_.str.346(%rip), %rsi
	callq	_strcmp
	cmpl	$0, %eax
	jne	LBB73_192
## %bb.180:
	movq	-416(%rbp), %rax
	movzbl	(%rax), %edi
	callq	_isdigit
	cmpl	$0, %eax
	je	LBB73_192
## %bb.181:
	movq	-416(%rbp), %rax
	movsbl	1(%rax), %ecx
	cmpl	$0, %ecx
	jne	LBB73_192
## %bb.182:
	movq	-416(%rbp), %rax
	movsbl	(%rax), %ecx
	subl	$48, %ecx
	movl	%ecx, -4056(%rbp)
	cmpl	$0, -4056(%rbp)
	jl	LBB73_184
## %bb.183:
	cmpl	$5, -4056(%rbp)
	jl	LBB73_185
LBB73_184:
	jmp	LBB73_191
LBB73_185:
	movq	-3944(%rbp), %rax
	movq	1472(%rax), %rax
	movq	-3944(%rbp), %rcx
	addq	$1352, %rcx             ## imm = 0x548
	movslq	-4056(%rbp), %rdx
	imulq	$24, %rdx, %rdx
	addq	%rdx, %rcx
	cmpq	%rcx, %rax
	jne	LBB73_187
## %bb.186:
	movq	___stderrp@GOTPCREL(%rip), %rax
	movq	(%rax), %rdi
	leaq	L_.str.347(%rip), %rsi
	movb	$0, %al
	callq	_fprintf
	movl	$1, -3964(%rbp)
	jmp	LBB73_190
LBB73_187:
	movq	-3944(%rbp), %rax
	addq	$1352, %rax             ## imm = 0x548
	movslq	-4056(%rbp), %rcx
	imulq	$24, %rcx, %rcx
	addq	%rcx, %rax
	cmpq	$0, (%rax)
	je	LBB73_189
## %bb.188:
	movq	-3944(%rbp), %rax
	addq	$1352, %rax             ## imm = 0x548
	movslq	-4056(%rbp), %rcx
	imulq	$24, %rcx, %rcx
	addq	%rcx, %rax
	movq	(%rax), %rdi
	callq	_close_db
	movq	-3944(%rbp), %rax
	addq	$1352, %rax             ## imm = 0x548
	movslq	-4056(%rbp), %rcx
	imulq	$24, %rcx, %rcx
	addq	%rcx, %rax
	movq	$0, (%rax)
LBB73_189:
	jmp	LBB73_190
LBB73_190:
	jmp	LBB73_191
LBB73_191:
	jmp	LBB73_193
LBB73_192:
	movq	___stderrp@GOTPCREL(%rip), %rax
	movq	(%rax), %rdi
	leaq	L_.str.348(%rip), %rsi
	movb	$0, %al
	callq	_fprintf
	movl	$1, -3964(%rbp)
LBB73_193:
	jmp	LBB73_194
LBB73_194:
	jmp	LBB73_195
LBB73_195:
	jmp	LBB73_1618
LBB73_196:
	cmpl	$100, -3960(%rbp)
	jne	LBB73_220
## %bb.197:
	cmpl	$1, -3956(%rbp)
	jle	LBB73_220
## %bb.198:
	movq	-432(%rbp), %rdi
	movslq	-3956(%rbp), %rdx
	leaq	L_.str.349(%rip), %rsi
	callq	_strncmp
	cmpl	$0, %eax
	jne	LBB73_220
## %bb.199:
	xorl	%esi, %esi
	movq	$0, -4064(%rbp)
	movl	$0, -4068(%rbp)
	movq	-3944(%rbp), %rdi
	callq	_open_db
	xorl	%eax, %eax
	movl	%eax, %r8d
	movq	-3944(%rbp), %rcx
	movq	(%rcx), %rdi
	leaq	L_.str.126(%rip), %rsi
	movl	$4294967295, %edx       ## imm = 0xFFFFFFFF
	leaq	-4080(%rbp), %rcx
	callq	_sqlite3_prepare_v2
	movl	%eax, -3964(%rbp)
	cmpl	$0, -3964(%rbp)
	je	LBB73_201
## %bb.200:
	movq	___stderrp@GOTPCREL(%rip), %rax
	movq	(%rax), %rdi
	movq	-3944(%rbp), %rax
	movq	(%rax), %rax
	movq	%rdi, -5504(%rbp)       ## 8-byte Spill
	movq	%rax, %rdi
	callq	_sqlite3_errmsg
	movq	-5504(%rbp), %rdi       ## 8-byte Reload
	leaq	L_.str.92(%rip), %rsi
	movq	%rax, %rdx
	movb	$0, %al
	callq	_fprintf
	movl	$1, -3964(%rbp)
	jmp	LBB73_208
LBB73_201:
	jmp	LBB73_202
LBB73_202:                              ## =>This Inner Loop Header: Depth=1
	movq	-4080(%rbp), %rdi
	callq	_sqlite3_step
	cmpl	$100, %eax
	jne	LBB73_207
## %bb.203:                             ##   in Loop: Header=BB73_202 Depth=1
	movq	-4080(%rbp), %rdi
	movl	$1, %esi
	callq	_sqlite3_column_text
	movq	%rax, -4096(%rbp)
	movq	-4080(%rbp), %rdi
	movl	$2, %esi
	callq	_sqlite3_column_text
	movq	%rax, -4104(%rbp)
	cmpq	$0, -4096(%rbp)
	je	LBB73_205
## %bb.204:                             ##   in Loop: Header=BB73_202 Depth=1
	cmpq	$0, -4104(%rbp)
	jne	LBB73_206
